*******************************************************************************
*                                                                             *
*              K1874BE96T C CROSS COMPILER Version 2.00.151126                *
*                          Copyright (C) 2012 NIIET                           *
*                                                                             *
*******************************************************************************

Warning[C24] .\BKATR\main.c(4258,30): Conversion may loose significant digits
Warning[C24] .\BKATR\main.c(4273,30): Conversion may loose significant digits
Warning[C24] .\BKATR\main.c(7143,59): Conversion may loose significant digits
Warning[C24] .\BKATR\main.c(4006,0): Conversion may loose significant digits
Warning[C24] .\BKATR\main.c(4012,0): Conversion may loose significant digits
                ?INTERRUPT09:
                     IRQ_bsi:
;FILE: .\BKATR\main.c
;000658    void IRQ_bsi() //Interrupt of bsi
00000000    F4                             	PUSHA 
00000001    C81C                           	PUSH  _AX
;000660            __PUSHA();
00000003    F4                             	PUSHA 
;000663            __DI();
00000004    FA                             	DI    
;000665            bsi_int = 1;
00000005    B1011C                         	LDB   _AL,#01h
00000008    C70105011C                     	STB   _AL,bsi_int
;000666            bsi_rt_stat = BSISTAT_TERM;
0000000D    A30100001C                     	LD    _AX,BSISTAT_TERM
00000012    C30188001C                     	ST    _AX,bsi_rt_stat
;000667            bsi_int_cnt++;
00000017    B30106011C                     	LDB   _AL,bsi_int_cnt
0000001C    171C                           	INCB  _AL
0000001E    C70106011C                     	STB   _AL,bsi_int_cnt
;000671            __EI();
00000023    FB                             	EI    
;000672            __POPA();
00000024    F5                             	POPA  
;000673    }
00000025    CC1C                           	POP   _AX
00000027    F5                             	POPA  
00000028    F0                             	RET   
.ENDF
                ?INTERRUPT00:
                  TIMER1_irq:
;000678    void TIMER1_irq()
00000029    F4                             	PUSHA 
0000002A    C81C                           	PUSH  _AX
;000680            __PUSHA();
0000002C    F4                             	PUSHA 
;000683            __DI();
0000002D    FA                             	DI    
;000688            count_timer = count_timer + 1;
0000002E    A30192001C                     	LD    _AX,count_timer
00000033    071C                           	INC   _AX
00000035    C30192001C                     	ST    _AX,count_timer
;000691            if (count_timer >= timer_lim)
0000003A    8B019E001C                     	CMP   _AX,timer_lim
0000003F    D30D                           	JNC   ??_1_ELSE
;000692            {
;000695                    count_timer = 0;
00000041    C301920000                     	ST    00h,count_timer
;000696                    change_tm = 255;
00000046    B1FF1C                         	LDB   _AL,#0FFh
00000049    C70117011C                     	STB   _AL,change_tm
;000697            }
                   ??_1_ELSE:
;000701            if (tim_25 == 1)
0000004E    B3012E021C                     	LDB   _AL,tim_25
00000053    99011C                         	CMPB  _AL,#01h
00000056    D71A                           	JNE   ??_2_ELSE
;000702            {
;000703                    count_tim_25 = count_tim_25 + 1;
00000058    A3018C001C                     	LD    _AX,count_tim_25
0000005D    071C                           	INC   _AX
0000005F    C3018C001C                     	ST    _AX,count_tim_25
;000705                    if (count_tim_25 > 650)
00000064    898B021C                       	CMP   _AX,#028Bh
00000068    D308                           	JNC   ??_3_ELSE
;000706                    {
;000709                            finish_25 = 1;
0000006A    B1011C                         	LDB   _AL,#01h
0000006D    C70148011C                     	STB   _AL,finish_25
;000710                    }
                   ??_3_ELSE:
;000711            }
                   ??_2_ELSE:
;000716            if (tim_25_t == 1)
00000072    B30130021C                     	LDB   _AL,tim_25_t
00000077    99011C                         	CMPB  _AL,#01h
0000007A    D71A                           	JNE   ??_4_ELSE
;000717            {
;000718                    count_tim_25_t = count_tim_25_t + 1;
0000007C    A30190001C                     	LD    _AX,count_tim_25_t
00000081    071C                           	INC   _AX
00000083    C30190001C                     	ST    _AX,count_tim_25_t
;000720                    if (count_tim_25_t > 650)
00000088    898B021C                       	CMP   _AX,#028Bh
0000008C    D308                           	JNC   ??_5_ELSE
;000721                    {
;000724                            finish_25_t = 1;
0000008E    B1011C                         	LDB   _AL,#01h
00000091    C7014A011C                     	STB   _AL,finish_25_t
;000725                    }
                   ??_5_ELSE:
;000726            }
                   ??_4_ELSE:
;000730            if (tim_25_otk == 1)
00000096    B3012F021C                     	LDB   _AL,tim_25_otk
0000009B    99011C                         	CMPB  _AL,#01h
0000009E    D71A                           	JNE   ??_6_ELSE
;000731            {
;000732                    count_tim_25_otk = count_tim_25_otk + 1;
000000A0    A3018E001C                     	LD    _AX,count_tim_25_otk
000000A5    071C                           	INC   _AX
000000A7    C3018E001C                     	ST    _AX,count_tim_25_otk
;000734                    if (count_tim_25_otk > 650)
000000AC    898B021C                       	CMP   _AX,#028Bh
000000B0    D308                           	JNC   ??_7_ELSE
;000735                    {
;000738                            finish_25_otk = 1;
000000B2    B1011C                         	LDB   _AL,#01h
000000B5    C70149011C                     	STB   _AL,finish_25_otk
;000739                    }
                   ??_7_ELSE:
;000740            }
                   ??_6_ELSE:
;000745            __EI();
000000BA    FB                             	EI    
;000746            __POPA();
000000BB    F5                             	POPA  
;000748            __NOP();
000000BC    FD                             	NOP   
;000749    }
000000BD    CC1C                           	POP   _AX
000000BF    F5                             	POPA  
000000C0    F0                             	RET   
.ENDF
                  delay_7000:
;000754    void delay_7000()
;000758            c = 0;
00000000    011C                           	CLR   c?delay_7000
;000760            do{
                   ??_8_LOOP:
;000761            c = c + 1; }
00000002    071C                           	INC   c?delay_7000
00000004    89581B1C                       	CMP   c?delay_7000,#1B58h
00000008    DEF8                           	JLT   ??_8_LOOP
;000763            while(c < 7000) ;
;000764    }
0000000A    F0                             	RET   
.ENDF
                   set_mode1:
;000769    void set_mode1()
;000772            change_tm = 0;
0000000B    C701170100                     	STB   00h,change_tm
;000776            if (mode_tm != 1)
00000010    B3010A001C                     	LDB   _AL,mode_tm
00000015    99011C                         	CMPB  _AL,#01h
00000018    DF05                           	JE    ??_9_ELSE
;000777            {
;000778                    last_mode_tm = mode_tm;
0000001A    C70109001C                     	STB   _AL,last_mode_tm
;000779            }
                   ??_9_ELSE:
;000782            mode_tm = 1;
0000001F    B1011C                         	LDB   _AL,#01h
00000022    C7010A001C                     	STB   _AL,mode_tm
;000785            count_timer = 0;
00000027    C301920000                     	ST    00h,count_timer
;000786            timer_lim = timer27;
0000002C    A30100001C                     	LD    _AX,timer27
00000031    C3019E001C                     	ST    _AX,timer_lim
;000787    }
00000036    F0                             	RET   
.ENDF
                   set_mode2:
;000792    void set_mode2()
;000796            if (mode_tm < 5)
00000037    B3010A001C                     	LDB   _AL,mode_tm
0000003C    99051C                         	CMPB  _AL,#05h
0000003F    DB26                           	JC    ??_10_ELSE
;000797            {
;000799                    change_tm = 0;
00000041    C701170100                     	STB   00h,change_tm
;000802                    if (mode_tm != 2)
00000046    99021C                         	CMPB  _AL,#02h
00000049    DF05                           	JE    ??_11_ELSE
;000803                    {
;000804                            last_mode_tm = mode_tm;
0000004B    C70109001C                     	STB   _AL,last_mode_tm
;000805                    }
                  ??_11_ELSE:
;000808                    mode_tm = 2;
00000050    B1021C                         	LDB   _AL,#02h
00000053    C7010A001C                     	STB   _AL,mode_tm
;000811                    count_timer = 0;
00000058    C301920000                     	ST    00h,count_timer
;000812                    timer_lim = timer5;
0000005D    A30102001C                     	LD    _AX,timer5
00000062    C3019E001C                     	ST    _AX,timer_lim
;000813            }
                  ??_10_ELSE:
;000814    }
00000067    F0                             	RET   
.ENDF
                   set_mode6:
;000818    void set_mode6()
;000821            change_tm = 0;
00000068    C701170100                     	STB   00h,change_tm
;000824            if (mode_tm != 6)
0000006D    B3010A001C                     	LDB   _AL,mode_tm
00000072    99061C                         	CMPB  _AL,#06h
00000075    DF05                           	JE    ??_12_ELSE
;000825            {
;000826                    last_mode_tm = mode_tm;
00000077    C70109001C                     	STB   _AL,last_mode_tm
;000827            }
                  ??_12_ELSE:
;000830            mode_tm = 6;
0000007C    B1061C                         	LDB   _AL,#06h
0000007F    C7010A001C                     	STB   _AL,mode_tm
;000833            count_timer = 0;
00000084    C301920000                     	ST    00h,count_timer
;000834            timer_lim = timer5;
00000089    A30102001C                     	LD    _AX,timer5
0000008E    C3019E001C                     	ST    _AX,timer_lim
;000835    }
00000093    F0                             	RET   
.ENDF
              add_mko_buffer:
;000840    void add_mko_buffer()
;000844            mko_buf_in = mko_buf_in + 1;
00000094    B3010D021C                     	LDB   _AL,mko_buf_in
00000099    171C                           	INCB  _AL
0000009B    C7010D021C                     	STB   _AL,mko_buf_in
;000848            mko_buf[0][mko_buf_in - 1] = mko_in_h;
000000A0    111D                           	CLRB  _AH
000000A2    B3010F021E                     	LDB   _BL,mko_in_h
000000A7    C71D58011E                     	STB   _BL,mko_buf_in-00B5h[_AX]
;000849            mko_buf[1][mko_buf_in - 1] = mko_in_l;
000000AC    AF010D021C                     	LDBZE _AX,mko_buf_in
000000B1    B30110021E                     	LDB   _BL,mko_in_l
000000B6    C71DB2011E                     	STB   _BL,(mko_buf+89)[_AX]
;000853            if (mko_buf_in >= 90)
000000BB    B3010D021C                     	LDB   _AL,mko_buf_in
000000C0    995A1C                         	CMPB  _AL,#5Ah
000000C3    D305                           	JNC   ??_13_ELSE
;000854            {
;000855                    mko_buf_in = 0;
000000C5    C7010D0200                     	STB   00h,mko_buf_in
;000856            }
                  ??_13_ELSE:
;000860            ch_mko = 1;
000000CA    B1011C                         	LDB   _AL,#01h
000000CD    C70116011C                     	STB   _AL,ch_mko
;000861    }
000000D2    F0                             	RET   
.ENDF
                 check_td_13:
;000867    void check_td_13()
000000D3    C824                           	PUSH  _EX
000000D5    C826                           	PUSH  _FX
000000D7    C828                           	PUSH  _GX
000000D9    C82A                           	PUSH  _HX
000000DB    69040018                       	SUB   _SP,#0004h
;000873            delta_t12 = fabs(t_td[0]-t_td[1]);
000000DF    A30110001C                     	LD    _AX,t_td
000000E4    A30112001E                     	LD    _BX,(t_td+2)
000000E9    A301140020                     	LD    _CX,(t_td+4)
000000EE    A301160022                     	LD    _DX,(t_td+6)
000000F3    EF0AFF                         	LCALL ??FPSUB
000000F6    EF07FF                         	LCALL fabs
000000F9    C318001C                       	ST    _AX,delta_t12?check_td_13[_SP]
000000FD    C318021E                       	ST    _BX,(delta_t12?check_td_13+2)[_SP]
;000874            delta_t13 = fabs(t_td[0]-t_td[2]);
00000101    A30110001C                     	LD    _AX,t_td
00000106    A30112001E                     	LD    _BX,(t_td+2)
0000010B    A301180020                     	LD    _CX,(t_td+8)
00000110    A3011A0022                     	LD    _DX,(t_td+10)
00000115    EFE8FE                         	LCALL ??FPSUB
00000118    EFE5FE                         	LCALL fabs
0000011B    A01C28                         	LD    delta_t13?check_td_13,_AX
0000011E    A01E2A                         	LD    (delta_t13?check_td_13+2),_BX
;000875            delta_t23 = fabs(t_td[1]-t_td[2]);
00000121    A30114001C                     	LD    _AX,(t_td+4)
00000126    A30116001E                     	LD    _BX,(t_td+6)
0000012B    A301180020                     	LD    _CX,(t_td+8)
00000130    A3011A0022                     	LD    _DX,(t_td+10)
00000135    EFC8FE                         	LCALL ??FPSUB
00000138    EFC5FE                         	LCALL fabs
0000013B    A01C24                         	LD    delta_t23?check_td_13,_AX
0000013E    A01E26                         	LD    (delta_t23?check_td_13+2),_BX
;000879            if (state_tdd1 == 0)
00000141    B30124021C                     	LDB   _AL,state_tdd1
00000146    98001C                         	CMPB  _AL,0
00000149    DF02                           	JE    ??_14_ELSE_BYPASS_149
0000014B    212E                           	SJMP  ??_14_ELSE
       ??_14_ELSE_BYPASS_149:
;000880            {
;000883                    if ((bums_td[0] == 255) || ((delta_t12 > 2) && (delta_t13 > 2)))
0000014D    B30107011C                     	LDB   _AL,bums_td
00000152    99FF1C                         	CMPB  _AL,#0FFh
00000155    DF26                           	JE    ??_15_IF
00000157    A318001C                       	LD    _AX,delta_t12?check_td_13[_SP]
0000015B    A318021E                       	LD    _BX,(delta_t12?check_td_13+2)[_SP]
0000015F    AD0020                         	LDBZE _CX,#00h
00000162    A1004022                       	LD    _DX,#4000h
00000166    EF97FE                         	LCALL ??FPCMP
00000169    DA48                           	JLE   ??_15_ELSE
0000016B    A0281C                         	LD    _AX,delta_t13?check_td_13
0000016E    A02A1E                         	LD    _BX,(delta_t13?check_td_13+2)
00000171    AD0020                         	LDBZE _CX,#00h
00000174    A1004022                       	LD    _DX,#4000h
00000178    EF85FE                         	LCALL ??FPCMP
0000017B    DA36                           	JLE   ??_15_ELSE
                    ??_15_IF:
;000884                    {
;000887                            if  (bl_td[0] != 255)
0000017D    B301F3001C                     	LDB   _AL,bl_td
00000182    99FF1C                         	CMPB  _AL,#0FFh
00000185    DF10                           	JE    ??_18_ELSE
;000888                            {
;000889                                    bl_td[0] = 255;
00000187    B1FF1C                         	LDB   _AL,#0FFh
0000018A    C701F3001C                     	STB   _AL,bl_td
;000891                                    code_av = 137;
0000018F    B1891C                         	LDB   _AL,#89h
00000192    C70125011C                     	STB   _AL,code_av
;000892                            }
                  ??_18_ELSE:
;000896                            state_tdd1 = 1;
00000197    B1011C                         	LDB   _AL,#01h
0000019A    C70124021C                     	STB   _AL,state_tdd1
;000900                            if (td1 == 1)
0000019F    B30110001C                     	LDB   _AL,td1
000001A4    99011C                         	CMPB  _AL,#01h
000001A7    D708                           	JNE   ??_19_ELSE
;000901                            {
;000902                                    td1 = 2;
000001A9    B1021C                         	LDB   _AL,#02h
000001AC    C70110001C                     	STB   _AL,td1
;000903                            }
                  ??_19_ELSE:
;000905                            goto state_1_1;
000001B1    20C8                           	SJMP  ??_state_1_1_check_td_13
;000906                    }
                  ??_15_ELSE:
;000910                    if ((bums_td[1] == 255) || ((delta_t12 > 2) && (delta_t23 > 2)))
000001B3    B30108011C                     	LDB   _AL,(bums_td+1)
000001B8    99FF1C                         	CMPB  _AL,#0FFh
000001BB    DF26                           	JE    ??_20_IF
000001BD    A318001C                       	LD    _AX,delta_t12?check_td_13[_SP]
000001C1    A318021E                       	LD    _BX,(delta_t12?check_td_13+2)[_SP]
000001C5    AD0020                         	LDBZE _CX,#00h
000001C8    A1004022                       	LD    _DX,#4000h
000001CC    EF31FE                         	LCALL ??FPCMP
000001CF    DA48                           	JLE   ??_20_ELSE
000001D1    A0241C                         	LD    _AX,delta_t23?check_td_13
000001D4    A0261E                         	LD    _BX,(delta_t23?check_td_13+2)
000001D7    AD0020                         	LDBZE _CX,#00h
000001DA    A1004022                       	LD    _DX,#4000h
000001DE    EF1FFE                         	LCALL ??FPCMP
000001E1    DA36                           	JLE   ??_20_ELSE
                    ??_20_IF:
;000911                    {
;000914                            if  (bl_td[1] != 255)
000001E3    B301F4001C                     	LDB   _AL,(bl_td+1)
000001E8    99FF1C                         	CMPB  _AL,#0FFh
000001EB    DF10                           	JE    ??_23_ELSE
;000915                            {
;000916                                    bl_td[1] = 255;
000001ED    B1FF1C                         	LDB   _AL,#0FFh
000001F0    C701F4001C                     	STB   _AL,(bl_td+1)
;000918                                    code_av = 138;
000001F5    B18A1C                         	LDB   _AL,#8Ah
000001F8    C70125011C                     	STB   _AL,code_av
;000919                            }
                  ??_23_ELSE:
;000923                            state_tdd1 = 1;
000001FD    B1011C                         	LDB   _AL,#01h
00000200    C70124021C                     	STB   _AL,state_tdd1
;000927                            if (td1 == 2)
00000205    B30110001C                     	LDB   _AL,td1
0000020A    99021C                         	CMPB  _AL,#02h
0000020D    D76C                           	JNE   ??_state_1_1_check_td_13
;000928                            {
;000929                                    td1 = 1;
0000020F    B1011C                         	LDB   _AL,#01h
00000212    C70110001C                     	STB   _AL,td1
;000930                            }
;000932                            goto state_1_1;
00000217    2062                           	SJMP  ??_state_1_1_check_td_13
;000933                    }
                  ??_20_ELSE:
;000937                    if ((bums_td[2] == 255) || ((delta_t13 > 2) && (delta_t23 > 2)))
00000219    B30109011C                     	LDB   _AL,(bums_td+2)
0000021E    99FF1C                         	CMPB  _AL,#0FFh
00000221    DF24                           	JE    ??_25_IF
00000223    A0281C                         	LD    _AX,delta_t13?check_td_13
00000226    A02A1E                         	LD    _BX,(delta_t13?check_td_13+2)
00000229    AD0020                         	LDBZE _CX,#00h
0000022C    A1004022                       	LD    _DX,#4000h
00000230    EFCDFD                         	LCALL ??FPCMP
00000233    DA46                           	JLE   ??_25_ELSE
00000235    A0241C                         	LD    _AX,delta_t23?check_td_13
00000238    A0261E                         	LD    _BX,(delta_t23?check_td_13+2)
0000023B    AD0020                         	LDBZE _CX,#00h
0000023E    A1004022                       	LD    _DX,#4000h
00000242    EFBBFD                         	LCALL ??FPCMP
00000245    DA34                           	JLE   ??_25_ELSE
                    ??_25_IF:
;000938                    {
;000941                            if  (bl_td[2] != 255)
00000247    B301F5001C                     	LDB   _AL,(bl_td+2)
0000024C    99FF1C                         	CMPB  _AL,#0FFh
0000024F    DF10                           	JE    ??_28_ELSE
;000942                            {
;000943                                    bl_td[2] = 255;
00000251    B1FF1C                         	LDB   _AL,#0FFh
00000254    C701F5001C                     	STB   _AL,(bl_td+2)
;000945                                    code_av = 139;
00000259    B18B1C                         	LDB   _AL,#8Bh
0000025C    C70125011C                     	STB   _AL,code_av
;000946                            }
                  ??_28_ELSE:
;000950                            state_tdd1 = 1;
00000261    B1011C                         	LDB   _AL,#01h
00000264    C70124021C                     	STB   _AL,state_tdd1
;000954                            if (td1 == 3)
00000269    B30110001C                     	LDB   _AL,td1
0000026E    99031C                         	CMPB  _AL,#03h
00000271    D708                           	JNE   ??_29_ELSE
;000955                            {
;000956                                    td1 = 1;
00000273    B1011C                         	LDB   _AL,#01h
00000276    C70110001C                     	STB   _AL,td1
;000957                            }
                  ??_29_ELSE:
;000958                    }
                  ??_25_ELSE:
;000959            }
                  ??_14_ELSE:
    ??_state_1_1_check_td_13:
;000965            if (state_tdd1 == 1)
0000027B    B30124021C                     	LDB   _AL,state_tdd1
00000280    99011C                         	CMPB  _AL,#01h
00000283    DF02                           	JE    ??_30_ELSE_BYPASS_283
00000285    216E                           	SJMP  ??_30_ELSE
       ??_30_ELSE_BYPASS_283:
;000966            {
;000969                    if (bl_td[0] == 255)
00000287    B301F3001C                     	LDB   _AL,bl_td
0000028C    99FF1C                         	CMPB  _AL,#0FFh
0000028F    D770                           	JNE   ??_31_ELSE
;000970                    {
;000973                            if ((delta_t23 > 2) || (bums_td[1] == 255) || (bums_td[2] == 255))
00000291    A0241C                         	LD    _AX,delta_t23?check_td_13
00000294    A0261E                         	LD    _BX,(delta_t23?check_td_13+2)
00000297    0120                           	CLR   _CX
00000299    A1004022                       	LD    _DX,#4000h
0000029D    EF60FD                         	LCALL ??FPCMP
000002A0    D214                           	JGT   ??_32_IF
000002A2    B30108011C                     	LDB   _AL,(bums_td+1)
000002A7    99FF1C                         	CMPB  _AL,#0FFh
000002AA    DF0A                           	JE    ??_32_IF
000002AC    B30109011C                     	LDB   _AL,(bums_td+2)
000002B1    99FF1C                         	CMPB  _AL,#0FFh
000002B4    D74B                           	JNE   ??_32_ELSE
                    ??_32_IF:
;000974                            {
;000977                                    if  (bl_td[1] != 255)
000002B6    B301F4001C                     	LDB   _AL,(bl_td+1)
000002BB    99FF1C                         	CMPB  _AL,#0FFh
000002BE    DF10                           	JE    ??_35_ELSE
;000978                                    {
;000979                                            bl_td[1] = 255;
000002C0    B1FF1C                         	LDB   _AL,#0FFh
000002C3    C701F4001C                     	STB   _AL,(bl_td+1)
;000981                                            code_av = 138;
000002C8    B18A1C                         	LDB   _AL,#8Ah
000002CB    C70125011C                     	STB   _AL,code_av
;000982                                    }
                  ??_35_ELSE:
;000984                                    if  (bl_td[2] != 255)
000002D0    B301F5001C                     	LDB   _AL,(bl_td+2)
000002D5    99FF1C                         	CMPB  _AL,#0FFh
000002D8    DF10                           	JE    ??_36_ELSE
;000985                                    {
;000986                                            bl_td[2] = 255;
000002DA    B1FF1C                         	LDB   _AL,#0FFh
000002DD    C701F5001C                     	STB   _AL,(bl_td+2)
;000988                                            code_av = 139;
000002E2    B18B1C                         	LDB   _AL,#8Bh
000002E5    C70125011C                     	STB   _AL,code_av
;000989                                    }
                  ??_36_ELSE:
;000992                                    state_tdd1 = 2;
000002EA    B1021C                         	LDB   _AL,#02h
000002ED    C70124021C                     	STB   _AL,state_tdd1
;000995                                    privet = 128;
000002F2    B1801C                         	LDB   _AL,#80h
000002F5    C70120021C                     	STB   _AL,privet
;000998                                    mode_td = 0;
000002FA    C701130200                     	STB   00h,mode_td
;001000                                    goto state_1_2;
000002FF    20F4                           	SJMP  ??_state_1_2_check_td_13
;001001                            }
                  ??_32_ELSE:
;001002                    }
                  ??_31_ELSE:
;001006                    if (bl_td[1] == 255)
00000301    B301F4001C                     	LDB   _AL,(bl_td+1)
00000306    99FF1C                         	CMPB  _AL,#0FFh
00000309    D770                           	JNE   ??_37_ELSE
;001007                    {
;001010                            if ((delta_t13 > 2) || (bums_td[0] == 255) || (bums_td[2] == 255))
0000030B    A0281C                         	LD    _AX,delta_t13?check_td_13
0000030E    A02A1E                         	LD    _BX,(delta_t13?check_td_13+2)
00000311    0120                           	CLR   _CX
00000313    A1004022                       	LD    _DX,#4000h
00000317    EFE6FC                         	LCALL ??FPCMP
0000031A    D214                           	JGT   ??_38_IF
0000031C    B30107011C                     	LDB   _AL,bums_td
00000321    99FF1C                         	CMPB  _AL,#0FFh
00000324    DF0A                           	JE    ??_38_IF
00000326    B30109011C                     	LDB   _AL,(bums_td+2)
0000032B    99FF1C                         	CMPB  _AL,#0FFh
0000032E    D74B                           	JNE   ??_38_ELSE
                    ??_38_IF:
;001011                            {
;001014                                    if  (bl_td[0] != 255)
00000330    B301F3001C                     	LDB   _AL,bl_td
00000335    99FF1C                         	CMPB  _AL,#0FFh
00000338    DF10                           	JE    ??_41_ELSE
;001015                                    {
;001016                                            bl_td[0] = 255;
0000033A    B1FF1C                         	LDB   _AL,#0FFh
0000033D    C701F3001C                     	STB   _AL,bl_td
;001018                                            code_av = 137;
00000342    B1891C                         	LDB   _AL,#89h
00000345    C70125011C                     	STB   _AL,code_av
;001019                                    }
                  ??_41_ELSE:
;001021                                    if  (bl_td[2] != 255)
0000034A    B301F5001C                     	LDB   _AL,(bl_td+2)
0000034F    99FF1C                         	CMPB  _AL,#0FFh
00000352    DF10                           	JE    ??_42_ELSE
;001022                                    {
;001023                                            bl_td[2] = 255;
00000354    B1FF1C                         	LDB   _AL,#0FFh
00000357    C701F5001C                     	STB   _AL,(bl_td+2)
;001025                                            code_av = 139;
0000035C    B18B1C                         	LDB   _AL,#8Bh
0000035F    C70125011C                     	STB   _AL,code_av
;001026                                    }
                  ??_42_ELSE:
;001029                                    state_tdd1 = 2;
00000364    B1021C                         	LDB   _AL,#02h
00000367    C70124021C                     	STB   _AL,state_tdd1
;001032                                    privet = 128;
0000036C    B1801C                         	LDB   _AL,#80h
0000036F    C70120021C                     	STB   _AL,privet
;001035                                    mode_td = 0;
00000374    C701130200                     	STB   00h,mode_td
;001037                                    goto state_1_2;
00000379    207A                           	SJMP  ??_state_1_2_check_td_13
;001038                            }
                  ??_38_ELSE:
;001039                    }
                  ??_37_ELSE:
;001043                    if (bl_td[2] == 255)
0000037B    B301F5001C                     	LDB   _AL,(bl_td+2)
00000380    99FF1C                         	CMPB  _AL,#0FFh
00000383    D770                           	JNE   ??_43_ELSE
;001044                    {
;001047                            if ((delta_t12 > 2) || (bums_td[0] == 255) || (bums_td[1] == 255))
00000385    A318001C                       	LD    _AX,delta_t12?check_td_13[_SP]
00000389    A318021E                       	LD    _BX,(delta_t12?check_td_13+2)[_SP]
0000038D    0120                           	CLR   _CX
0000038F    A1004022                       	LD    _DX,#4000h
00000393    EF6AFC                         	LCALL ??FPCMP
00000396    D214                           	JGT   ??_44_IF
00000398    B30107011C                     	LDB   _AL,bums_td
0000039D    99FF1C                         	CMPB  _AL,#0FFh
000003A0    DF0A                           	JE    ??_44_IF
000003A2    B30108011C                     	LDB   _AL,(bums_td+1)
000003A7    99FF1C                         	CMPB  _AL,#0FFh
000003AA    D749                           	JNE   ??_44_ELSE
                    ??_44_IF:
;001048                            {
;001051                                    if  (bl_td[0] != 255)
000003AC    B301F3001C                     	LDB   _AL,bl_td
000003B1    99FF1C                         	CMPB  _AL,#0FFh
000003B4    DF10                           	JE    ??_47_ELSE
;001052                                    {
;001053                                            bl_td[0] = 255;
000003B6    B1FF1C                         	LDB   _AL,#0FFh
000003B9    C701F3001C                     	STB   _AL,bl_td
;001055                                            code_av = 137;
000003BE    B1891C                         	LDB   _AL,#89h
000003C1    C70125011C                     	STB   _AL,code_av
;001056                                    }
                  ??_47_ELSE:
;001058                                    if  (bl_td[1] != 255)
000003C6    B301F4001C                     	LDB   _AL,(bl_td+1)
000003CB    99FF1C                         	CMPB  _AL,#0FFh
000003CE    DF10                           	JE    ??_48_ELSE
;001059                                    {
;001060                                            bl_td[1] = 255;
000003D0    B1FF1C                         	LDB   _AL,#0FFh
000003D3    C701F4001C                     	STB   _AL,(bl_td+1)
;001062                                            code_av = 138;
000003D8    B18A1C                         	LDB   _AL,#8Ah
000003DB    C70125011C                     	STB   _AL,code_av
;001063                                    }
                  ??_48_ELSE:
;001066                                    state_tdd1 = 2;
000003E0    B1021C                         	LDB   _AL,#02h
000003E3    C70124021C                     	STB   _AL,state_tdd1
;001069                                    privet = 128;
000003E8    B1801C                         	LDB   _AL,#80h
000003EB    C70120021C                     	STB   _AL,privet
;001072                                    mode_td = 0;
000003F0    C701130200                     	STB   00h,mode_td
;001073                            }
                  ??_44_ELSE:
;001074                    }
                  ??_43_ELSE:
;001075            }
                  ??_30_ELSE:
    ??_state_1_2_check_td_13:
;001079            __NOP();
000003F5    FD                             	NOP   
;001081    }
000003F6    65040018                       	ADD   _SP,#0004h
000003FA    CC2A                           	POP   _HX
000003FC    CC28                           	POP   _GX
000003FE    CC26                           	POP   _FX
00000400    CC24                           	POP   _EX
00000402    F0                             	RET   
.ENDF
                 check_td_46:
;001086    void check_td_46()
00000403    C824                           	PUSH  _EX
00000405    C826                           	PUSH  _FX
00000407    C828                           	PUSH  _GX
00000409    C82A                           	PUSH  _HX
0000040B    69040018                       	SUB   _SP,#0004h
;001092            delta_t45 = fabs(t_td[3]-t_td[4]);
0000040F    A3011C001C                     	LD    _AX,(t_td+12)
00000414    A3011E001E                     	LD    _BX,(t_td+14)
00000419    A301200020                     	LD    _CX,(t_td+16)
0000041E    A301220022                     	LD    _DX,(t_td+18)
00000423    EFDAFB                         	LCALL ??FPSUB
00000426    EFD7FB                         	LCALL fabs
00000429    C318001C                       	ST    _AX,delta_t45?check_td_46[_SP]
0000042D    C318021E                       	ST    _BX,(delta_t45?check_td_46+2)[_SP]
;001093            delta_t46 = fabs(t_td[3]-t_td[5]);
00000431    A3011C001C                     	LD    _AX,(t_td+12)
00000436    A3011E001E                     	LD    _BX,(t_td+14)
0000043B    A301240020                     	LD    _CX,(t_td+20)
00000440    A301260022                     	LD    _DX,(t_td+22)
00000445    EFB8FB                         	LCALL ??FPSUB
00000448    EFB5FB                         	LCALL fabs
0000044B    A01C28                         	LD    delta_t46?check_td_46,_AX
0000044E    A01E2A                         	LD    (delta_t46?check_td_46+2),_BX
;001094            delta_t56 = fabs(t_td[4]-t_td[5]);
00000451    A30120001C                     	LD    _AX,(t_td+16)
00000456    A30122001E                     	LD    _BX,(t_td+18)
0000045B    A301240020                     	LD    _CX,(t_td+20)
00000460    A301260022                     	LD    _DX,(t_td+22)
00000465    EF98FB                         	LCALL ??FPSUB
00000468    EF95FB                         	LCALL fabs
0000046B    A01C24                         	LD    delta_t56?check_td_46,_AX
0000046E    A01E26                         	LD    (delta_t56?check_td_46+2),_BX
;001098            if (state_tdd2 == 0)
00000471    B30125021C                     	LDB   _AL,state_tdd2
00000476    98001C                         	CMPB  _AL,0
00000479    DF02                           	JE    ??_49_ELSE_BYPASS_479
0000047B    212E                           	SJMP  ??_49_ELSE
       ??_49_ELSE_BYPASS_479:
;001099            {
;001102                    if ((bums_td[3] == 255) || ((delta_t45 > 2) && (delta_t46 > 2)))
0000047D    B3010A011C                     	LDB   _AL,(bums_td+3)
00000482    99FF1C                         	CMPB  _AL,#0FFh
00000485    DF26                           	JE    ??_50_IF
00000487    A318001C                       	LD    _AX,delta_t45?check_td_46[_SP]
0000048B    A318021E                       	LD    _BX,(delta_t45?check_td_46+2)[_SP]
0000048F    AD0020                         	LDBZE _CX,#00h
00000492    A1004022                       	LD    _DX,#4000h
00000496    EF67FB                         	LCALL ??FPCMP
00000499    DA48                           	JLE   ??_50_ELSE
0000049B    A0281C                         	LD    _AX,delta_t46?check_td_46
0000049E    A02A1E                         	LD    _BX,(delta_t46?check_td_46+2)
000004A1    AD0020                         	LDBZE _CX,#00h
000004A4    A1004022                       	LD    _DX,#4000h
000004A8    EF55FB                         	LCALL ??FPCMP
000004AB    DA36                           	JLE   ??_50_ELSE
                    ??_50_IF:
;001103                    {
;001106                            if  (bl_td[3] != 255)
000004AD    B301F6001C                     	LDB   _AL,(bl_td+3)
000004B2    99FF1C                         	CMPB  _AL,#0FFh
000004B5    DF10                           	JE    ??_53_ELSE
;001107                            {
;001108                                    bl_td[3] = 255;
000004B7    B1FF1C                         	LDB   _AL,#0FFh
000004BA    C701F6001C                     	STB   _AL,(bl_td+3)
;001110                                    code_av = 140;
000004BF    B18C1C                         	LDB   _AL,#8Ch
000004C2    C70125011C                     	STB   _AL,code_av
;001111                            }
                  ??_53_ELSE:
;001115                            state_tdd2 = 1;
000004C7    B1011C                         	LDB   _AL,#01h
000004CA    C70125021C                     	STB   _AL,state_tdd2
;001119                            if (td2 == 1)
000004CF    B30111001C                     	LDB   _AL,td2
000004D4    99011C                         	CMPB  _AL,#01h
000004D7    D708                           	JNE   ??_54_ELSE
;001120                            {
;001121                                    td2 = 2;
000004D9    B1021C                         	LDB   _AL,#02h
000004DC    C70111001C                     	STB   _AL,td2
;001122                            }
                  ??_54_ELSE:
;001124                            goto state_2_1;
000004E1    20C8                           	SJMP  ??_state_2_1_check_td_46
;001125                    }
                  ??_50_ELSE:
;001128                    if ((bums_td[4] == 255) || ((delta_t45 > 2) && (delta_t56 > 2)))
000004E3    B3010B011C                     	LDB   _AL,(bums_td+4)
000004E8    99FF1C                         	CMPB  _AL,#0FFh
000004EB    DF26                           	JE    ??_55_IF
000004ED    A318001C                       	LD    _AX,delta_t45?check_td_46[_SP]
000004F1    A318021E                       	LD    _BX,(delta_t45?check_td_46+2)[_SP]
000004F5    AD0020                         	LDBZE _CX,#00h
000004F8    A1004022                       	LD    _DX,#4000h
000004FC    EF01FB                         	LCALL ??FPCMP
000004FF    DA48                           	JLE   ??_55_ELSE
00000501    A0241C                         	LD    _AX,delta_t56?check_td_46
00000504    A0261E                         	LD    _BX,(delta_t56?check_td_46+2)
00000507    AD0020                         	LDBZE _CX,#00h
0000050A    A1004022                       	LD    _DX,#4000h
0000050E    EFEFFA                         	LCALL ??FPCMP
00000511    DA36                           	JLE   ??_55_ELSE
                    ??_55_IF:
;001129                    {
;001131                            if  (bl_td[4] != 255)
00000513    B301F7001C                     	LDB   _AL,(bl_td+4)
00000518    99FF1C                         	CMPB  _AL,#0FFh
0000051B    DF10                           	JE    ??_58_ELSE
;001132                            {
;001133                                    bl_td[4] = 255;
0000051D    B1FF1C                         	LDB   _AL,#0FFh
00000520    C701F7001C                     	STB   _AL,(bl_td+4)
;001135                                    code_av = 141;
00000525    B18D1C                         	LDB   _AL,#8Dh
00000528    C70125011C                     	STB   _AL,code_av
;001136                            }
                  ??_58_ELSE:
;001138                            state_tdd2 = 1;
0000052D    B1011C                         	LDB   _AL,#01h
00000530    C70125021C                     	STB   _AL,state_tdd2
;001140                            if (td2 == 2)
00000535    B30111001C                     	LDB   _AL,td2
0000053A    99021C                         	CMPB  _AL,#02h
0000053D    D76C                           	JNE   ??_state_2_1_check_td_46
;001141                            {
;001142                                    td2 = 1;
0000053F    B1011C                         	LDB   _AL,#01h
00000542    C70111001C                     	STB   _AL,td2
;001143                            }
;001145                            goto state_2_1;
00000547    2062                           	SJMP  ??_state_2_1_check_td_46
;001146                    }
                  ??_55_ELSE:
;001149                    if ((bums_td[5] == 255) || ((delta_t46 > 2) && (delta_t56 > 2)))
00000549    B3010C011C                     	LDB   _AL,(bums_td+5)
0000054E    99FF1C                         	CMPB  _AL,#0FFh
00000551    DF24                           	JE    ??_60_IF
00000553    A0281C                         	LD    _AX,delta_t46?check_td_46
00000556    A02A1E                         	LD    _BX,(delta_t46?check_td_46+2)
00000559    AD0020                         	LDBZE _CX,#00h
0000055C    A1004022                       	LD    _DX,#4000h
00000560    EF9DFA                         	LCALL ??FPCMP
00000563    DA46                           	JLE   ??_60_ELSE
00000565    A0241C                         	LD    _AX,delta_t56?check_td_46
00000568    A0261E                         	LD    _BX,(delta_t56?check_td_46+2)
0000056B    AD0020                         	LDBZE _CX,#00h
0000056E    A1004022                       	LD    _DX,#4000h
00000572    EF8BFA                         	LCALL ??FPCMP
00000575    DA34                           	JLE   ??_60_ELSE
                    ??_60_IF:
;001150                    {
;001152                            if  (bl_td[5] != 255)
00000577    B301F8001C                     	LDB   _AL,(bl_td+5)
0000057C    99FF1C                         	CMPB  _AL,#0FFh
0000057F    DF10                           	JE    ??_63_ELSE
;001153                            {
;001154                                    bl_td[5] = 255;
00000581    B1FF1C                         	LDB   _AL,#0FFh
00000584    C701F8001C                     	STB   _AL,(bl_td+5)
;001156                                    code_av = 142;
00000589    B18E1C                         	LDB   _AL,#8Eh
0000058C    C70125011C                     	STB   _AL,code_av
;001157                            }
                  ??_63_ELSE:
;001159                            state_tdd2 = 1;
00000591    B1011C                         	LDB   _AL,#01h
00000594    C70125021C                     	STB   _AL,state_tdd2
;001161                            if (td2 == 3)
00000599    B30111001C                     	LDB   _AL,td2
0000059E    99031C                         	CMPB  _AL,#03h
000005A1    D708                           	JNE   ??_64_ELSE
;001162                            {
;001163                                    td2 = 1;
000005A3    B1011C                         	LDB   _AL,#01h
000005A6    C70111001C                     	STB   _AL,td2
;001164                            }
                  ??_64_ELSE:
;001165                    }
                  ??_60_ELSE:
;001166            }
                  ??_49_ELSE:
    ??_state_2_1_check_td_46:
;001171            if (state_tdd2 == 1)
000005AB    B30125021C                     	LDB   _AL,state_tdd2
000005B0    99011C                         	CMPB  _AL,#01h
000005B3    DF02                           	JE    ??_65_ELSE_BYPASS_5B3
000005B5    216E                           	SJMP  ??_65_ELSE
       ??_65_ELSE_BYPASS_5B3:
;001172            {
;001174                    if (bl_td[3] == 255)
000005B7    B301F6001C                     	LDB   _AL,(bl_td+3)
000005BC    99FF1C                         	CMPB  _AL,#0FFh
000005BF    D770                           	JNE   ??_66_ELSE
;001175                    {
;001177                            if ((delta_t56 > 2) || (bums_td[4] == 255) || (bums_td[5] == 255))
000005C1    A0241C                         	LD    _AX,delta_t56?check_td_46
000005C4    A0261E                         	LD    _BX,(delta_t56?check_td_46+2)
000005C7    0120                           	CLR   _CX
000005C9    A1004022                       	LD    _DX,#4000h
000005CD    EF30FA                         	LCALL ??FPCMP
000005D0    D214                           	JGT   ??_67_IF
000005D2    B3010B011C                     	LDB   _AL,(bums_td+4)
000005D7    99FF1C                         	CMPB  _AL,#0FFh
000005DA    DF0A                           	JE    ??_67_IF
000005DC    B3010C011C                     	LDB   _AL,(bums_td+5)
000005E1    99FF1C                         	CMPB  _AL,#0FFh
000005E4    D74B                           	JNE   ??_67_ELSE
                    ??_67_IF:
;001178                            {
;001180                                    if  (bl_td[4] != 255)
000005E6    B301F7001C                     	LDB   _AL,(bl_td+4)
000005EB    99FF1C                         	CMPB  _AL,#0FFh
000005EE    DF10                           	JE    ??_70_ELSE
;001181                                    {
;001182                                            bl_td[4] = 255;
000005F0    B1FF1C                         	LDB   _AL,#0FFh
000005F3    C701F7001C                     	STB   _AL,(bl_td+4)
;001184                                            code_av = 141;
000005F8    B18D1C                         	LDB   _AL,#8Dh
000005FB    C70125011C                     	STB   _AL,code_av
;001185                                    }
                  ??_70_ELSE:
;001187                                    if  (bl_td[5] != 255)
00000600    B301F8001C                     	LDB   _AL,(bl_td+5)
00000605    99FF1C                         	CMPB  _AL,#0FFh
00000608    DF10                           	JE    ??_71_ELSE
;001188                                    {
;001189                                            bl_td[5] = 255;
0000060A    B1FF1C                         	LDB   _AL,#0FFh
0000060D    C701F8001C                     	STB   _AL,(bl_td+5)
;001191                                            code_av = 142;
00000612    B18E1C                         	LDB   _AL,#8Eh
00000615    C70125011C                     	STB   _AL,code_av
;001192                                    }
                  ??_71_ELSE:
;001194                                    state_tdd2 = 2;
0000061A    B1021C                         	LDB   _AL,#02h
0000061D    C70125021C                     	STB   _AL,state_tdd2
;001196                                    privet = 128;
00000622    B1801C                         	LDB   _AL,#80h
00000625    C70120021C                     	STB   _AL,privet
;001199                                    mode_td = 0;
0000062A    C701130200                     	STB   00h,mode_td
;001201                                    goto state_2_2;
0000062F    20F4                           	SJMP  ??_state_2_2_check_td_46
;001202                            }
                  ??_67_ELSE:
;001203                    }
                  ??_66_ELSE:
;001206                    if (bl_td[4] == 255)
00000631    B301F7001C                     	LDB   _AL,(bl_td+4)
00000636    99FF1C                         	CMPB  _AL,#0FFh
00000639    D770                           	JNE   ??_72_ELSE
;001207                    {
;001209                            if ((delta_t46 > 2) || (bums_td[3] == 255) || (bums_td[5] == 255))
0000063B    A0281C                         	LD    _AX,delta_t46?check_td_46
0000063E    A02A1E                         	LD    _BX,(delta_t46?check_td_46+2)
00000641    0120                           	CLR   _CX
00000643    A1004022                       	LD    _DX,#4000h
00000647    EFB6F9                         	LCALL ??FPCMP
0000064A    D214                           	JGT   ??_73_IF
0000064C    B3010A011C                     	LDB   _AL,(bums_td+3)
00000651    99FF1C                         	CMPB  _AL,#0FFh
00000654    DF0A                           	JE    ??_73_IF
00000656    B3010C011C                     	LDB   _AL,(bums_td+5)
0000065B    99FF1C                         	CMPB  _AL,#0FFh
0000065E    D74B                           	JNE   ??_73_ELSE
                    ??_73_IF:
;001210                            {
;001212                                    if  (bl_td[3] != 255)
00000660    B301F6001C                     	LDB   _AL,(bl_td+3)
00000665    99FF1C                         	CMPB  _AL,#0FFh
00000668    DF10                           	JE    ??_76_ELSE
;001213                                    {
;001214                                            bl_td[3] = 255;
0000066A    B1FF1C                         	LDB   _AL,#0FFh
0000066D    C701F6001C                     	STB   _AL,(bl_td+3)
;001216                                            code_av = 140;
00000672    B18C1C                         	LDB   _AL,#8Ch
00000675    C70125011C                     	STB   _AL,code_av
;001217                                    }
                  ??_76_ELSE:
;001219                                    if  (bl_td[5] != 255)
0000067A    B301F8001C                     	LDB   _AL,(bl_td+5)
0000067F    99FF1C                         	CMPB  _AL,#0FFh
00000682    DF10                           	JE    ??_77_ELSE
;001220                                    {
;001221                                            bl_td[5] = 255;
00000684    B1FF1C                         	LDB   _AL,#0FFh
00000687    C701F8001C                     	STB   _AL,(bl_td+5)
;001223                                            code_av = 142;
0000068C    B18E1C                         	LDB   _AL,#8Eh
0000068F    C70125011C                     	STB   _AL,code_av
;001224                                    }
                  ??_77_ELSE:
;001226                                    state_tdd2 = 2;
00000694    B1021C                         	LDB   _AL,#02h
00000697    C70125021C                     	STB   _AL,state_tdd2
;001228                                    privet = 128;
0000069C    B1801C                         	LDB   _AL,#80h
0000069F    C70120021C                     	STB   _AL,privet
;001231                                    mode_td = 0;
000006A4    C701130200                     	STB   00h,mode_td
;001233                                    goto state_2_2;
000006A9    207A                           	SJMP  ??_state_2_2_check_td_46
;001234                            }
                  ??_73_ELSE:
;001235                    }
                  ??_72_ELSE:
;001238                    if (bl_td[5] == 255)
000006AB    B301F8001C                     	LDB   _AL,(bl_td+5)
000006B0    99FF1C                         	CMPB  _AL,#0FFh
000006B3    D770                           	JNE   ??_78_ELSE
;001239                    {
;001241                            if ((delta_t45 > 2) || (bums_td[3] == 255) || (bums_td[4] == 255))
000006B5    A318001C                       	LD    _AX,delta_t45?check_td_46[_SP]
000006B9    A318021E                       	LD    _BX,(delta_t45?check_td_46+2)[_SP]
000006BD    0120                           	CLR   _CX
000006BF    A1004022                       	LD    _DX,#4000h
000006C3    EF3AF9                         	LCALL ??FPCMP
000006C6    D214                           	JGT   ??_79_IF
000006C8    B3010A011C                     	LDB   _AL,(bums_td+3)
000006CD    99FF1C                         	CMPB  _AL,#0FFh
000006D0    DF0A                           	JE    ??_79_IF
000006D2    B3010B011C                     	LDB   _AL,(bums_td+4)
000006D7    99FF1C                         	CMPB  _AL,#0FFh
000006DA    D749                           	JNE   ??_79_ELSE
                    ??_79_IF:
;001242                            {
;001244                                    if  (bl_td[3] != 255)
000006DC    B301F6001C                     	LDB   _AL,(bl_td+3)
000006E1    99FF1C                         	CMPB  _AL,#0FFh
000006E4    DF10                           	JE    ??_82_ELSE
;001245                                    {
;001246                                            bl_td[3] = 255;
000006E6    B1FF1C                         	LDB   _AL,#0FFh
000006E9    C701F6001C                     	STB   _AL,(bl_td+3)
;001248                                            code_av = 140;
000006EE    B18C1C                         	LDB   _AL,#8Ch
000006F1    C70125011C                     	STB   _AL,code_av
;001249                                    }
                  ??_82_ELSE:
;001251                                    if  (bl_td[4] != 255)
000006F6    B301F7001C                     	LDB   _AL,(bl_td+4)
000006FB    99FF1C                         	CMPB  _AL,#0FFh
000006FE    DF10                           	JE    ??_83_ELSE
;001252                                    {
;001253                                            bl_td[4] = 255;
00000700    B1FF1C                         	LDB   _AL,#0FFh
00000703    C701F7001C                     	STB   _AL,(bl_td+4)
;001255                                            code_av = 141;
00000708    B18D1C                         	LDB   _AL,#8Dh
0000070B    C70125011C                     	STB   _AL,code_av
;001256                                    }
                  ??_83_ELSE:
;001258                                    state_tdd2 = 2;
00000710    B1021C                         	LDB   _AL,#02h
00000713    C70125021C                     	STB   _AL,state_tdd2
;001260                                    privet = 128;
00000718    B1801C                         	LDB   _AL,#80h
0000071B    C70120021C                     	STB   _AL,privet
;001263                                    mode_td = 0;
00000720    C701130200                     	STB   00h,mode_td
;001264                            }
                  ??_79_ELSE:
;001265                    }
                  ??_78_ELSE:
;001266            }
                  ??_65_ELSE:
    ??_state_2_2_check_td_46:
;001270            __NOP();
00000725    FD                             	NOP   
;001272    }
00000726    65040018                       	ADD   _SP,#0004h
0000072A    CC2A                           	POP   _HX
0000072C    CC28                           	POP   _GX
0000072E    CC26                           	POP   _FX
00000730    CC24                           	POP   _EX
00000732    F0                             	RET   
.ENDF
                 check_td_79:
;001277    void check_td_79()
00000733    C824                           	PUSH  _EX
00000735    C826                           	PUSH  _FX
00000737    C828                           	PUSH  _GX
00000739    C82A                           	PUSH  _HX
0000073B    69040018                       	SUB   _SP,#0004h
;001282            delta_t78 = fabs(t_td[6]-t_td[7]);
0000073F    A30128001C                     	LD    _AX,(t_td+24)
00000744    A3012A001E                     	LD    _BX,(t_td+26)
00000749    A3012C0020                     	LD    _CX,(t_td+28)
0000074E    A3012E0022                     	LD    _DX,(t_td+30)
00000753    EFAAF8                         	LCALL ??FPSUB
00000756    EFA7F8                         	LCALL fabs
00000759    C318001C                       	ST    _AX,delta_t78?check_td_79[_SP]
0000075D    C318021E                       	ST    _BX,(delta_t78?check_td_79+2)[_SP]
;001283            delta_t79 = fabs(t_td[6]-t_td[8]);
00000761    A30128001C                     	LD    _AX,(t_td+24)
00000766    A3012A001E                     	LD    _BX,(t_td+26)
0000076B    A301300020                     	LD    _CX,(t_td+32)
00000770    A301320022                     	LD    _DX,(t_td+34)
00000775    EF88F8                         	LCALL ??FPSUB
00000778    EF85F8                         	LCALL fabs
0000077B    A01C28                         	LD    delta_t79?check_td_79,_AX
0000077E    A01E2A                         	LD    (delta_t79?check_td_79+2),_BX
;001284            delta_t89 = fabs(t_td[7]-t_td[8]);
00000781    A3012C001C                     	LD    _AX,(t_td+28)
00000786    A3012E001E                     	LD    _BX,(t_td+30)
0000078B    A301300020                     	LD    _CX,(t_td+32)
00000790    A301320022                     	LD    _DX,(t_td+34)
00000795    EF68F8                         	LCALL ??FPSUB
00000798    EF65F8                         	LCALL fabs
0000079B    A01C24                         	LD    delta_t89?check_td_79,_AX
0000079E    A01E26                         	LD    (delta_t89?check_td_79+2),_BX
;001287            if (state_tdd3 == 0)
000007A1    B30126021C                     	LDB   _AL,state_tdd3
000007A6    98001C                         	CMPB  _AL,0
000007A9    DF02                           	JE    ??_84_ELSE_BYPASS_7A9
000007AB    212E                           	SJMP  ??_84_ELSE
       ??_84_ELSE_BYPASS_7A9:
;001288            {
;001290                    if ((bums_td[6] == 255) || ((delta_t78 > 2) && (delta_t79 > 2)))
000007AD    B3010D011C                     	LDB   _AL,(bums_td+6)
000007B2    99FF1C                         	CMPB  _AL,#0FFh
000007B5    DF26                           	JE    ??_85_IF
000007B7    A318001C                       	LD    _AX,delta_t78?check_td_79[_SP]
000007BB    A318021E                       	LD    _BX,(delta_t78?check_td_79+2)[_SP]
000007BF    AD0020                         	LDBZE _CX,#00h
000007C2    A1004022                       	LD    _DX,#4000h
000007C6    EF37F8                         	LCALL ??FPCMP
000007C9    DA48                           	JLE   ??_85_ELSE
000007CB    A0281C                         	LD    _AX,delta_t79?check_td_79
000007CE    A02A1E                         	LD    _BX,(delta_t79?check_td_79+2)
000007D1    AD0020                         	LDBZE _CX,#00h
000007D4    A1004022                       	LD    _DX,#4000h
000007D8    EF25F8                         	LCALL ??FPCMP
000007DB    DA36                           	JLE   ??_85_ELSE
                    ??_85_IF:
;001291                    {
;001293                            if  (bl_td[6] != 255)
000007DD    B301F9001C                     	LDB   _AL,(bl_td+6)
000007E2    99FF1C                         	CMPB  _AL,#0FFh
000007E5    DF10                           	JE    ??_88_ELSE
;001294                            {
;001295                                    bl_td[6] = 255;
000007E7    B1FF1C                         	LDB   _AL,#0FFh
000007EA    C701F9001C                     	STB   _AL,(bl_td+6)
;001297                                    code_av = 143;
000007EF    B18F1C                         	LDB   _AL,#8Fh
000007F2    C70125011C                     	STB   _AL,code_av
;001298                            }
                  ??_88_ELSE:
;001300                            state_tdd3 = 1;
000007F7    B1011C                         	LDB   _AL,#01h
000007FA    C70126021C                     	STB   _AL,state_tdd3
;001302                            if (td3 == 1)
000007FF    B30112001C                     	LDB   _AL,td3
00000804    99011C                         	CMPB  _AL,#01h
00000807    D708                           	JNE   ??_89_ELSE
;001303                            {
;001304                                    td3 = 2;
00000809    B1021C                         	LDB   _AL,#02h
0000080C    C70112001C                     	STB   _AL,td3
;001305                            }
                  ??_89_ELSE:
;001307                            goto state_3_1;
00000811    20C8                           	SJMP  ??_state_3_1_check_td_79
;001308                    }
                  ??_85_ELSE:
;001311                    if ((bums_td[7] == 255) || ((delta_t78 > 2) && (delta_t89 > 2)))
00000813    B3010E011C                     	LDB   _AL,(bums_td+7)
00000818    99FF1C                         	CMPB  _AL,#0FFh
0000081B    DF26                           	JE    ??_90_IF
0000081D    A318001C                       	LD    _AX,delta_t78?check_td_79[_SP]
00000821    A318021E                       	LD    _BX,(delta_t78?check_td_79+2)[_SP]
00000825    AD0020                         	LDBZE _CX,#00h
00000828    A1004022                       	LD    _DX,#4000h
0000082C    EFD1F7                         	LCALL ??FPCMP
0000082F    DA48                           	JLE   ??_90_ELSE
00000831    A0241C                         	LD    _AX,delta_t89?check_td_79
00000834    A0261E                         	LD    _BX,(delta_t89?check_td_79+2)
00000837    AD0020                         	LDBZE _CX,#00h
0000083A    A1004022                       	LD    _DX,#4000h
0000083E    EFBFF7                         	LCALL ??FPCMP
00000841    DA36                           	JLE   ??_90_ELSE
                    ??_90_IF:
;001312                    {
;001314                            if  (bl_td[7] != 255)
00000843    B301FA001C                     	LDB   _AL,(bl_td+7)
00000848    99FF1C                         	CMPB  _AL,#0FFh
0000084B    DF10                           	JE    ??_93_ELSE
;001315                            {
;001316                                    bl_td[7] = 255;
0000084D    B1FF1C                         	LDB   _AL,#0FFh
00000850    C701FA001C                     	STB   _AL,(bl_td+7)
;001318                                    code_av = 144;
00000855    B1901C                         	LDB   _AL,#90h
00000858    C70125011C                     	STB   _AL,code_av
;001319                            }
                  ??_93_ELSE:
;001321                            state_tdd3 = 1;
0000085D    B1011C                         	LDB   _AL,#01h
00000860    C70126021C                     	STB   _AL,state_tdd3
;001323                            if (td3 == 2)
00000865    B30112001C                     	LDB   _AL,td3
0000086A    99021C                         	CMPB  _AL,#02h
0000086D    D76C                           	JNE   ??_state_3_1_check_td_79
;001324                            {
;001325                                    td3 = 1;
0000086F    B1011C                         	LDB   _AL,#01h
00000872    C70112001C                     	STB   _AL,td3
;001326                            }
;001328                            goto state_3_1;
00000877    2062                           	SJMP  ??_state_3_1_check_td_79
;001330                    }
                  ??_90_ELSE:
;001332                    if ((bums_td[8] == 255) || ((delta_t79 > 2) && (delta_t89 > 2)))
00000879    B3010F011C                     	LDB   _AL,(bums_td+8)
0000087E    99FF1C                         	CMPB  _AL,#0FFh
00000881    DF24                           	JE    ??_95_IF
00000883    A0281C                         	LD    _AX,delta_t79?check_td_79
00000886    A02A1E                         	LD    _BX,(delta_t79?check_td_79+2)
00000889    AD0020                         	LDBZE _CX,#00h
0000088C    A1004022                       	LD    _DX,#4000h
00000890    EF6DF7                         	LCALL ??FPCMP
00000893    DA46                           	JLE   ??_95_ELSE
00000895    A0241C                         	LD    _AX,delta_t89?check_td_79
00000898    A0261E                         	LD    _BX,(delta_t89?check_td_79+2)
0000089B    AD0020                         	LDBZE _CX,#00h
0000089E    A1004022                       	LD    _DX,#4000h
000008A2    EF5BF7                         	LCALL ??FPCMP
000008A5    DA34                           	JLE   ??_95_ELSE
                    ??_95_IF:
;001333                    {
;001335                            if  (bl_td[8] != 255)
000008A7    B301FB001C                     	LDB   _AL,(bl_td+8)
000008AC    99FF1C                         	CMPB  _AL,#0FFh
000008AF    DF10                           	JE    ??_98_ELSE
;001336                            {
;001337                                    bl_td[8] = 255;
000008B1    B1FF1C                         	LDB   _AL,#0FFh
000008B4    C701FB001C                     	STB   _AL,(bl_td+8)
;001339                                    code_av = 145;
000008B9    B1911C                         	LDB   _AL,#91h
000008BC    C70125011C                     	STB   _AL,code_av
;001340                            }
                  ??_98_ELSE:
;001342                            state_tdd3 = 1;
000008C1    B1011C                         	LDB   _AL,#01h
000008C4    C70126021C                     	STB   _AL,state_tdd3
;001344                            if (td3 == 3)
000008C9    B30112001C                     	LDB   _AL,td3
000008CE    99031C                         	CMPB  _AL,#03h
000008D1    D708                           	JNE   ??_99_ELSE
;001345                            {
;001346                                    td3 = 1;
000008D3    B1011C                         	LDB   _AL,#01h
000008D6    C70112001C                     	STB   _AL,td3
;001347                            }
                  ??_99_ELSE:
;001348                    }
                  ??_95_ELSE:
;001349            }
                  ??_84_ELSE:
    ??_state_3_1_check_td_79:
;001354            if (state_tdd3 == 1)
000008DB    B30126021C                     	LDB   _AL,state_tdd3
000008E0    99011C                         	CMPB  _AL,#01h
000008E3    DF02                           	JE    ??_100_ELSE_BYPASS_8E3
000008E5    216E                           	SJMP  ??_100_ELSE
      ??_100_ELSE_BYPASS_8E3:
;001355            {
;001357                    if (bl_td[6] == 255)
000008E7    B301F9001C                     	LDB   _AL,(bl_td+6)
000008EC    99FF1C                         	CMPB  _AL,#0FFh
000008EF    D770                           	JNE   ??_101_ELSE
;001358                    {
;001360                            if ((delta_t89 > 2) || (bums_td[7] == 255) || (bums_td[8] == 255))
000008F1    A0241C                         	LD    _AX,delta_t89?check_td_79
000008F4    A0261E                         	LD    _BX,(delta_t89?check_td_79+2)
000008F7    0120                           	CLR   _CX
000008F9    A1004022                       	LD    _DX,#4000h
000008FD    EF00F7                         	LCALL ??FPCMP
00000900    D214                           	JGT   ??_102_IF
00000902    B3010E011C                     	LDB   _AL,(bums_td+7)
00000907    99FF1C                         	CMPB  _AL,#0FFh
0000090A    DF0A                           	JE    ??_102_IF
0000090C    B3010F011C                     	LDB   _AL,(bums_td+8)
00000911    99FF1C                         	CMPB  _AL,#0FFh
00000914    D74B                           	JNE   ??_102_ELSE
                   ??_102_IF:
;001361                            {
;001363                                    if  (bl_td[7] != 255)
00000916    B301FA001C                     	LDB   _AL,(bl_td+7)
0000091B    99FF1C                         	CMPB  _AL,#0FFh
0000091E    DF10                           	JE    ??_105_ELSE
;001364                                    {
;001365                                            bl_td[7] = 255;
00000920    B1FF1C                         	LDB   _AL,#0FFh
00000923    C701FA001C                     	STB   _AL,(bl_td+7)
;001367                                            code_av = 144;
00000928    B1901C                         	LDB   _AL,#90h
0000092B    C70125011C                     	STB   _AL,code_av
;001368                                    }
                 ??_105_ELSE:
;001370                                    if  (bl_td[8] != 255)
00000930    B301FB001C                     	LDB   _AL,(bl_td+8)
00000935    99FF1C                         	CMPB  _AL,#0FFh
00000938    DF10                           	JE    ??_106_ELSE
;001371                                    {
;001372                                            bl_td[8] = 255;
0000093A    B1FF1C                         	LDB   _AL,#0FFh
0000093D    C701FB001C                     	STB   _AL,(bl_td+8)
;001374                                            code_av = 145;
00000942    B1911C                         	LDB   _AL,#91h
00000945    C70125011C                     	STB   _AL,code_av
;001375                                    }
                 ??_106_ELSE:
;001377                                    state_tdd3 = 2;
0000094A    B1021C                         	LDB   _AL,#02h
0000094D    C70126021C                     	STB   _AL,state_tdd3
;001379                                    privet = 128;
00000952    B1801C                         	LDB   _AL,#80h
00000955    C70120021C                     	STB   _AL,privet
;001382                                    mode_td = 0;
0000095A    C701130200                     	STB   00h,mode_td
;001384                                    goto state_3_2;
0000095F    20F4                           	SJMP  ??_state_3_2_check_td_79
;001385                            }
                 ??_102_ELSE:
;001386                    }
                 ??_101_ELSE:
;001389                    if (bl_td[7] == 255)
00000961    B301FA001C                     	LDB   _AL,(bl_td+7)
00000966    99FF1C                         	CMPB  _AL,#0FFh
00000969    D770                           	JNE   ??_107_ELSE
;001390                    {
;001392                            if ((delta_t79 > 2) || (bums_td[6] == 255) || (bums_td[8] == 255))
0000096B    A0281C                         	LD    _AX,delta_t79?check_td_79
0000096E    A02A1E                         	LD    _BX,(delta_t79?check_td_79+2)
00000971    0120                           	CLR   _CX
00000973    A1004022                       	LD    _DX,#4000h
00000977    EF86F6                         	LCALL ??FPCMP
0000097A    D214                           	JGT   ??_108_IF
0000097C    B3010D011C                     	LDB   _AL,(bums_td+6)
00000981    99FF1C                         	CMPB  _AL,#0FFh
00000984    DF0A                           	JE    ??_108_IF
00000986    B3010F011C                     	LDB   _AL,(bums_td+8)
0000098B    99FF1C                         	CMPB  _AL,#0FFh
0000098E    D74B                           	JNE   ??_108_ELSE
                   ??_108_IF:
;001393                            {
;001395                                    if  (bl_td[6] != 255)
00000990    B301F9001C                     	LDB   _AL,(bl_td+6)
00000995    99FF1C                         	CMPB  _AL,#0FFh
00000998    DF10                           	JE    ??_111_ELSE
;001396                                    {
;001397                                            bl_td[6] = 255;
0000099A    B1FF1C                         	LDB   _AL,#0FFh
0000099D    C701F9001C                     	STB   _AL,(bl_td+6)
;001399                                            code_av = 143;
000009A2    B18F1C                         	LDB   _AL,#8Fh
000009A5    C70125011C                     	STB   _AL,code_av
;001400                                    }
                 ??_111_ELSE:
;001402                                    if  (bl_td[8] != 255)
000009AA    B301FB001C                     	LDB   _AL,(bl_td+8)
000009AF    99FF1C                         	CMPB  _AL,#0FFh
000009B2    DF10                           	JE    ??_112_ELSE
;001403                                    {
;001404                                            bl_td[8] = 255;
000009B4    B1FF1C                         	LDB   _AL,#0FFh
000009B7    C701FB001C                     	STB   _AL,(bl_td+8)
;001406                                            code_av = 145;
000009BC    B1911C                         	LDB   _AL,#91h
000009BF    C70125011C                     	STB   _AL,code_av
;001407                                    }
                 ??_112_ELSE:
;001409                                    state_tdd3 = 2;
000009C4    B1021C                         	LDB   _AL,#02h
000009C7    C70126021C                     	STB   _AL,state_tdd3
;001411                                    privet = 128;
000009CC    B1801C                         	LDB   _AL,#80h
000009CF    C70120021C                     	STB   _AL,privet
;001414                                    mode_td = 0;
000009D4    C701130200                     	STB   00h,mode_td
;001416                                    goto state_3_2;
000009D9    207A                           	SJMP  ??_state_3_2_check_td_79
;001417                            }
                 ??_108_ELSE:
;001418                    }
                 ??_107_ELSE:
;001421                    if (bl_td[8] == 255)
000009DB    B301FB001C                     	LDB   _AL,(bl_td+8)
000009E0    99FF1C                         	CMPB  _AL,#0FFh
000009E3    D770                           	JNE   ??_113_ELSE
;001422                    {
;001424                            if ((delta_t78 > 2) || (bums_td[6] == 255) || (bums_td[7] == 255))
000009E5    A318001C                       	LD    _AX,delta_t78?check_td_79[_SP]
000009E9    A318021E                       	LD    _BX,(delta_t78?check_td_79+2)[_SP]
000009ED    0120                           	CLR   _CX
000009EF    A1004022                       	LD    _DX,#4000h
000009F3    EF0AF6                         	LCALL ??FPCMP
000009F6    D214                           	JGT   ??_114_IF
000009F8    B3010D011C                     	LDB   _AL,(bums_td+6)
000009FD    99FF1C                         	CMPB  _AL,#0FFh
00000A00    DF0A                           	JE    ??_114_IF
00000A02    B3010E011C                     	LDB   _AL,(bums_td+7)
00000A07    99FF1C                         	CMPB  _AL,#0FFh
00000A0A    D749                           	JNE   ??_114_ELSE
                   ??_114_IF:
;001425                            {
;001427                                    if  (bl_td[6] != 255)
00000A0C    B301F9001C                     	LDB   _AL,(bl_td+6)
00000A11    99FF1C                         	CMPB  _AL,#0FFh
00000A14    DF10                           	JE    ??_117_ELSE
;001428                                    {
;001429                                            bl_td[6] = 255;
00000A16    B1FF1C                         	LDB   _AL,#0FFh
00000A19    C701F9001C                     	STB   _AL,(bl_td+6)
;001431                                            code_av = 143;
00000A1E    B18F1C                         	LDB   _AL,#8Fh
00000A21    C70125011C                     	STB   _AL,code_av
;001432                                    }
                 ??_117_ELSE:
;001434                                    if  (bl_td[7] != 255)
00000A26    B301FA001C                     	LDB   _AL,(bl_td+7)
00000A2B    99FF1C                         	CMPB  _AL,#0FFh
00000A2E    DF10                           	JE    ??_118_ELSE
;001435                                    {
;001436                                            bl_td[7] = 255;
00000A30    B1FF1C                         	LDB   _AL,#0FFh
00000A33    C701FA001C                     	STB   _AL,(bl_td+7)
;001438                                            code_av = 144;
00000A38    B1901C                         	LDB   _AL,#90h
00000A3B    C70125011C                     	STB   _AL,code_av
;001439                                    }
                 ??_118_ELSE:
;001441                                    state_tdd3 = 2;
00000A40    B1021C                         	LDB   _AL,#02h
00000A43    C70126021C                     	STB   _AL,state_tdd3
;001443                                    privet = 128;
00000A48    B1801C                         	LDB   _AL,#80h
00000A4B    C70120021C                     	STB   _AL,privet
;001446                                    mode_td = 0;
00000A50    C701130200                     	STB   00h,mode_td
;001447                            }
                 ??_114_ELSE:
;001448                    }
                 ??_113_ELSE:
;001449            }
                 ??_100_ELSE:
    ??_state_3_2_check_td_79:
;001453            __NOP();
00000A55    FD                             	NOP   
;001454    }
00000A56    65040018                       	ADD   _SP,#0004h
00000A5A    CC2A                           	POP   _HX
00000A5C    CC28                           	POP   _GX
00000A5E    CC26                           	POP   _FX
00000A60    CC24                           	POP   _EX
00000A62    F0                             	RET   
.ENDF
               check_td_1012:
;001459    void check_td_1012()
00000A63    C824                           	PUSH  _EX
00000A65    C826                           	PUSH  _FX
00000A67    C828                           	PUSH  _GX
00000A69    C82A                           	PUSH  _HX
00000A6B    69040018                       	SUB   _SP,#0004h
;001464            delta_t10_11 = fabs(t_td[9]-t_td[10]);
00000A6F    A30134001C                     	LD    _AX,(t_td+36)
00000A74    A30136001E                     	LD    _BX,(t_td+38)
00000A79    A301380020                     	LD    _CX,(t_td+40)
00000A7E    A3013A0022                     	LD    _DX,(t_td+42)
00000A83    EF7AF5                         	LCALL ??FPSUB
00000A86    EF77F5                         	LCALL fabs
00000A89    C318001C                       	ST    _AX,delta_t10_11?check_td_1012[_SP]
00000A8D    C318021E                       	ST    _BX,(delta_t10_11?check_td_1012+2)[_SP]
;001465            delta_t10_12 = fabs(t_td[9]-t_td[11]);
00000A91    A30134001C                     	LD    _AX,(t_td+36)
00000A96    A30136001E                     	LD    _BX,(t_td+38)
00000A9B    A3013C0020                     	LD    _CX,(t_td+44)
00000AA0    A3013E0022                     	LD    _DX,(t_td+46)
00000AA5    EF58F5                         	LCALL ??FPSUB
00000AA8    EF55F5                         	LCALL fabs
00000AAB    A01C28                         	LD    delta_t10_12?check_td_1012,_AX
00000AAE    A01E2A                         	LD    (delta_t10_12?check_td_1012+2),_BX
;001466            delta_t11_12 = fabs(t_td[10]-t_td[11]);
00000AB1    A30138001C                     	LD    _AX,(t_td+40)
00000AB6    A3013A001E                     	LD    _BX,(t_td+42)
00000ABB    A3013C0020                     	LD    _CX,(t_td+44)
00000AC0    A3013E0022                     	LD    _DX,(t_td+46)
00000AC5    EF38F5                         	LCALL ??FPSUB
00000AC8    EF35F5                         	LCALL fabs
00000ACB    A01C24                         	LD    delta_t11_12?check_td_1012,_AX
00000ACE    A01E26                         	LD    (delta_t11_12?check_td_1012+2),_BX
;001469            if (state_tdd4 == 0)
00000AD1    B30127021C                     	LDB   _AL,state_tdd4
00000AD6    98001C                         	CMPB  _AL,0
00000AD9    DF02                           	JE    ??_119_ELSE_BYPASS_AD9
00000ADB    212E                           	SJMP  ??_119_ELSE
      ??_119_ELSE_BYPASS_AD9:
;001470            {
;001471                    if ((bums_td[9] == 255) || ((delta_t10_11 > 2) && (delta_t10_12 > 2)))
00000ADD    B30110011C                     	LDB   _AL,(bums_td+9)
00000AE2    99FF1C                         	CMPB  _AL,#0FFh
00000AE5    DF26                           	JE    ??_120_IF
00000AE7    A318001C                       	LD    _AX,delta_t10_11?check_td_1012[_SP]
00000AEB    A318021E                       	LD    _BX,(delta_t10_11?check_td_1012+2)[_SP]
00000AEF    AD0020                         	LDBZE _CX,#00h
00000AF2    A1004022                       	LD    _DX,#4000h
00000AF6    EF07F5                         	LCALL ??FPCMP
00000AF9    DA48                           	JLE   ??_120_ELSE
00000AFB    A0281C                         	LD    _AX,delta_t10_12?check_td_1012
00000AFE    A02A1E                         	LD    _BX,(delta_t10_12?check_td_1012+2)
00000B01    AD0020                         	LDBZE _CX,#00h
00000B04    A1004022                       	LD    _DX,#4000h
00000B08    EFF5F4                         	LCALL ??FPCMP
00000B0B    DA36                           	JLE   ??_120_ELSE
                   ??_120_IF:
;001472                    {
;001474                            if  (bl_td[9] != 255)
00000B0D    B301FC001C                     	LDB   _AL,(bl_td+9)
00000B12    99FF1C                         	CMPB  _AL,#0FFh
00000B15    DF10                           	JE    ??_123_ELSE
;001475                            {
;001476                                    bl_td[9] = 255;
00000B17    B1FF1C                         	LDB   _AL,#0FFh
00000B1A    C701FC001C                     	STB   _AL,(bl_td+9)
;001478                                    code_av = 146;
00000B1F    B1921C                         	LDB   _AL,#92h
00000B22    C70125011C                     	STB   _AL,code_av
;001479                            }
                 ??_123_ELSE:
;001481                            state_tdd4 = 1;
00000B27    B1011C                         	LDB   _AL,#01h
00000B2A    C70127021C                     	STB   _AL,state_tdd4
;001483                            if (td4 == 1)
00000B2F    B30113001C                     	LDB   _AL,td4
00000B34    99011C                         	CMPB  _AL,#01h
00000B37    D708                           	JNE   ??_124_ELSE
;001484                            {
;001485                                    td4 = 2;
00000B39    B1021C                         	LDB   _AL,#02h
00000B3C    C70113001C                     	STB   _AL,td4
;001486                            }
                 ??_124_ELSE:
;001488                            goto state_4_1;
00000B41    20C8                           	SJMP  ??_state_4_1_check_td_1012
;001489                    }
                 ??_120_ELSE:
;001492                    if ((bums_td[10] == 255) || ((delta_t10_11 > 2) && (delta_t11_12 > 2)))
00000B43    B30111011C                     	LDB   _AL,(bums_td+10)
00000B48    99FF1C                         	CMPB  _AL,#0FFh
00000B4B    DF26                           	JE    ??_125_IF
00000B4D    A318001C                       	LD    _AX,delta_t10_11?check_td_1012[_SP]
00000B51    A318021E                       	LD    _BX,(delta_t10_11?check_td_1012+2)[_SP]
00000B55    AD0020                         	LDBZE _CX,#00h
00000B58    A1004022                       	LD    _DX,#4000h
00000B5C    EFA1F4                         	LCALL ??FPCMP
00000B5F    DA48                           	JLE   ??_125_ELSE
00000B61    A0241C                         	LD    _AX,delta_t11_12?check_td_1012
00000B64    A0261E                         	LD    _BX,(delta_t11_12?check_td_1012+2)
00000B67    AD0020                         	LDBZE _CX,#00h
00000B6A    A1004022                       	LD    _DX,#4000h
00000B6E    EF8FF4                         	LCALL ??FPCMP
00000B71    DA36                           	JLE   ??_125_ELSE
                   ??_125_IF:
;001493                    {
;001495                            if  (bl_td[10] != 255)
00000B73    B301FD001C                     	LDB   _AL,(bl_td+10)
00000B78    99FF1C                         	CMPB  _AL,#0FFh
00000B7B    DF10                           	JE    ??_128_ELSE
;001496                            {
;001497                                    bl_td[10] = 255;
00000B7D    B1FF1C                         	LDB   _AL,#0FFh
00000B80    C701FD001C                     	STB   _AL,(bl_td+10)
;001499                                    code_av = 147;
00000B85    B1931C                         	LDB   _AL,#93h
00000B88    C70125011C                     	STB   _AL,code_av
;001500                            }
                 ??_128_ELSE:
;001502                            state_tdd4 = 1;
00000B8D    B1011C                         	LDB   _AL,#01h
00000B90    C70127021C                     	STB   _AL,state_tdd4
;001504                            if (td4 == 2)
00000B95    B30113001C                     	LDB   _AL,td4
00000B9A    99021C                         	CMPB  _AL,#02h
00000B9D    D76C                           	JNE   ??_state_4_1_check_td_1012
;001505                            {
;001506                                    td4 = 1;
00000B9F    B1011C                         	LDB   _AL,#01h
00000BA2    C70113001C                     	STB   _AL,td4
;001507                            }
;001509                            goto state_4_1;
00000BA7    2062                           	SJMP  ??_state_4_1_check_td_1012
;001510                    }
                 ??_125_ELSE:
;001513                    if ((bums_td[11] == 255) || ((delta_t10_12 > 2) && (delta_t11_12 > 2)))
00000BA9    B30112011C                     	LDB   _AL,(bums_td+11)
00000BAE    99FF1C                         	CMPB  _AL,#0FFh
00000BB1    DF24                           	JE    ??_130_IF
00000BB3    A0281C                         	LD    _AX,delta_t10_12?check_td_1012
00000BB6    A02A1E                         	LD    _BX,(delta_t10_12?check_td_1012+2)
00000BB9    AD0020                         	LDBZE _CX,#00h
00000BBC    A1004022                       	LD    _DX,#4000h
00000BC0    EF3DF4                         	LCALL ??FPCMP
00000BC3    DA46                           	JLE   ??_130_ELSE
00000BC5    A0241C                         	LD    _AX,delta_t11_12?check_td_1012
00000BC8    A0261E                         	LD    _BX,(delta_t11_12?check_td_1012+2)
00000BCB    AD0020                         	LDBZE _CX,#00h
00000BCE    A1004022                       	LD    _DX,#4000h
00000BD2    EF2BF4                         	LCALL ??FPCMP
00000BD5    DA34                           	JLE   ??_130_ELSE
                   ??_130_IF:
;001514                    {
;001516                            if  (bl_td[11] != 255)
00000BD7    B301FE001C                     	LDB   _AL,(bl_td+11)
00000BDC    99FF1C                         	CMPB  _AL,#0FFh
00000BDF    DF10                           	JE    ??_133_ELSE
;001517                            {
;001518                                    bl_td[11] = 255;
00000BE1    B1FF1C                         	LDB   _AL,#0FFh
00000BE4    C701FE001C                     	STB   _AL,(bl_td+11)
;001520                                    code_av = 148;
00000BE9    B1941C                         	LDB   _AL,#94h
00000BEC    C70125011C                     	STB   _AL,code_av
;001521                            }
                 ??_133_ELSE:
;001523                            state_tdd4 = 1;
00000BF1    B1011C                         	LDB   _AL,#01h
00000BF4    C70127021C                     	STB   _AL,state_tdd4
;001525                            if (td4 == 3)
00000BF9    B30113001C                     	LDB   _AL,td4
00000BFE    99031C                         	CMPB  _AL,#03h
00000C01    D708                           	JNE   ??_134_ELSE
;001526                            {
;001527                                    td4 = 1;
00000C03    B1011C                         	LDB   _AL,#01h
00000C06    C70113001C                     	STB   _AL,td4
;001528                            }
                 ??_134_ELSE:
;001529                    }
                 ??_130_ELSE:
;001530            }
                 ??_119_ELSE:
  ??_state_4_1_check_td_1012:
;001535            if (state_tdd4 == 1)
00000C0B    B30127021C                     	LDB   _AL,state_tdd4
00000C10    99011C                         	CMPB  _AL,#01h
00000C13    DF02                           	JE    ??_135_ELSE_BYPASS_C13
00000C15    216E                           	SJMP  ??_135_ELSE
      ??_135_ELSE_BYPASS_C13:
;001536            {
;001538                    if (bl_td[9] == 255)
00000C17    B301FC001C                     	LDB   _AL,(bl_td+9)
00000C1C    99FF1C                         	CMPB  _AL,#0FFh
00000C1F    D770                           	JNE   ??_136_ELSE
;001539                    {
;001541                            if ((delta_t11_12 > 2) || (bums_td[10] == 255) || (bums_td[11] == 255))
00000C21    A0241C                         	LD    _AX,delta_t11_12?check_td_1012
00000C24    A0261E                         	LD    _BX,(delta_t11_12?check_td_1012+2)
00000C27    0120                           	CLR   _CX
00000C29    A1004022                       	LD    _DX,#4000h
00000C2D    EFD0F3                         	LCALL ??FPCMP
00000C30    D214                           	JGT   ??_137_IF
00000C32    B30111011C                     	LDB   _AL,(bums_td+10)
00000C37    99FF1C                         	CMPB  _AL,#0FFh
00000C3A    DF0A                           	JE    ??_137_IF
00000C3C    B30112011C                     	LDB   _AL,(bums_td+11)
00000C41    99FF1C                         	CMPB  _AL,#0FFh
00000C44    D74B                           	JNE   ??_137_ELSE
                   ??_137_IF:
;001542                            {
;001544                                    if  (bl_td[10] != 255)
00000C46    B301FD001C                     	LDB   _AL,(bl_td+10)
00000C4B    99FF1C                         	CMPB  _AL,#0FFh
00000C4E    DF10                           	JE    ??_140_ELSE
;001545                                    {
;001546                                            bl_td[10] = 255;
00000C50    B1FF1C                         	LDB   _AL,#0FFh
00000C53    C701FD001C                     	STB   _AL,(bl_td+10)
;001548                                            code_av = 147;
00000C58    B1931C                         	LDB   _AL,#93h
00000C5B    C70125011C                     	STB   _AL,code_av
;001549                                    }
                 ??_140_ELSE:
;001551                                    if  (bl_td[11] != 255)
00000C60    B301FE001C                     	LDB   _AL,(bl_td+11)
00000C65    99FF1C                         	CMPB  _AL,#0FFh
00000C68    DF10                           	JE    ??_141_ELSE
;001552                                    {
;001553                                            bl_td[11] = 255;
00000C6A    B1FF1C                         	LDB   _AL,#0FFh
00000C6D    C701FE001C                     	STB   _AL,(bl_td+11)
;001555                                            code_av = 148;
00000C72    B1941C                         	LDB   _AL,#94h
00000C75    C70125011C                     	STB   _AL,code_av
;001556                                    }
                 ??_141_ELSE:
;001558                                    state_tdd4 = 2;
00000C7A    B1021C                         	LDB   _AL,#02h
00000C7D    C70127021C                     	STB   _AL,state_tdd4
;001560                                    privet = 128;
00000C82    B1801C                         	LDB   _AL,#80h
00000C85    C70120021C                     	STB   _AL,privet
;001563                                    mode_td = 0;
00000C8A    C701130200                     	STB   00h,mode_td
;001565                                    goto state_4_2;
00000C8F    20F4                           	SJMP  ??_state_4_2_check_td_1012
;001566                            }
                 ??_137_ELSE:
;001567                    }
                 ??_136_ELSE:
;001570                    if (bl_td[10] == 255)
00000C91    B301FD001C                     	LDB   _AL,(bl_td+10)
00000C96    99FF1C                         	CMPB  _AL,#0FFh
00000C99    D770                           	JNE   ??_142_ELSE
;001571                    {
;001573                            if ((delta_t10_12 > 2) || (bums_td[9] == 255) || (bums_td[11] == 255))
00000C9B    A0281C                         	LD    _AX,delta_t10_12?check_td_1012
00000C9E    A02A1E                         	LD    _BX,(delta_t10_12?check_td_1012+2)
00000CA1    0120                           	CLR   _CX
00000CA3    A1004022                       	LD    _DX,#4000h
00000CA7    EF56F3                         	LCALL ??FPCMP
00000CAA    D214                           	JGT   ??_143_IF
00000CAC    B30110011C                     	LDB   _AL,(bums_td+9)
00000CB1    99FF1C                         	CMPB  _AL,#0FFh
00000CB4    DF0A                           	JE    ??_143_IF
00000CB6    B30112011C                     	LDB   _AL,(bums_td+11)
00000CBB    99FF1C                         	CMPB  _AL,#0FFh
00000CBE    D74B                           	JNE   ??_143_ELSE
                   ??_143_IF:
;001574                            {
;001576                                    if  (bl_td[9] != 255)
00000CC0    B301FC001C                     	LDB   _AL,(bl_td+9)
00000CC5    99FF1C                         	CMPB  _AL,#0FFh
00000CC8    DF10                           	JE    ??_146_ELSE
;001577                                    {
;001578                                            bl_td[9] = 255;
00000CCA    B1FF1C                         	LDB   _AL,#0FFh
00000CCD    C701FC001C                     	STB   _AL,(bl_td+9)
;001580                                            code_av = 146;
00000CD2    B1921C                         	LDB   _AL,#92h
00000CD5    C70125011C                     	STB   _AL,code_av
;001581                                    }
                 ??_146_ELSE:
;001583                                    if  (bl_td[11] != 255)
00000CDA    B301FE001C                     	LDB   _AL,(bl_td+11)
00000CDF    99FF1C                         	CMPB  _AL,#0FFh
00000CE2    DF10                           	JE    ??_147_ELSE
;001584                                    {
;001585                                            bl_td[11] = 255;
00000CE4    B1FF1C                         	LDB   _AL,#0FFh
00000CE7    C701FE001C                     	STB   _AL,(bl_td+11)
;001587                                            code_av = 148;
00000CEC    B1941C                         	LDB   _AL,#94h
00000CEF    C70125011C                     	STB   _AL,code_av
;001588                                    }
                 ??_147_ELSE:
;001590                                    state_tdd4 = 2;
00000CF4    B1021C                         	LDB   _AL,#02h
00000CF7    C70127021C                     	STB   _AL,state_tdd4
;001592                                    privet = 128;
00000CFC    B1801C                         	LDB   _AL,#80h
00000CFF    C70120021C                     	STB   _AL,privet
;001595                                    mode_td = 0;
00000D04    C701130200                     	STB   00h,mode_td
;001597                                    goto state_4_2;
00000D09    207A                           	SJMP  ??_state_4_2_check_td_1012
;001598                            }
                 ??_143_ELSE:
;001599                    }
                 ??_142_ELSE:
;001602                    if (bl_td[11] == 255)
00000D0B    B301FE001C                     	LDB   _AL,(bl_td+11)
00000D10    99FF1C                         	CMPB  _AL,#0FFh
00000D13    D770                           	JNE   ??_148_ELSE
;001603                    {
;001605                            if ((delta_t10_11 > 2) || (bums_td[9] == 255) || (bums_td[10] == 255))
00000D15    A318001C                       	LD    _AX,delta_t10_11?check_td_1012[_SP]
00000D19    A318021E                       	LD    _BX,(delta_t10_11?check_td_1012+2)[_SP]
00000D1D    0120                           	CLR   _CX
00000D1F    A1004022                       	LD    _DX,#4000h
00000D23    EFDAF2                         	LCALL ??FPCMP
00000D26    D214                           	JGT   ??_149_IF
00000D28    B30110011C                     	LDB   _AL,(bums_td+9)
00000D2D    99FF1C                         	CMPB  _AL,#0FFh
00000D30    DF0A                           	JE    ??_149_IF
00000D32    B30111011C                     	LDB   _AL,(bums_td+10)
00000D37    99FF1C                         	CMPB  _AL,#0FFh
00000D3A    D749                           	JNE   ??_149_ELSE
                   ??_149_IF:
;001606                            {
;001608                                    if  (bl_td[9] != 255)
00000D3C    B301FC001C                     	LDB   _AL,(bl_td+9)
00000D41    99FF1C                         	CMPB  _AL,#0FFh
00000D44    DF10                           	JE    ??_152_ELSE
;001609                                    {
;001610                                            bl_td[9] = 255;
00000D46    B1FF1C                         	LDB   _AL,#0FFh
00000D49    C701FC001C                     	STB   _AL,(bl_td+9)
;001612                                            code_av = 146;
00000D4E    B1921C                         	LDB   _AL,#92h
00000D51    C70125011C                     	STB   _AL,code_av
;001613                                    }
                 ??_152_ELSE:
;001615                                    if  (bl_td[10] != 255)
00000D56    B301FD001C                     	LDB   _AL,(bl_td+10)
00000D5B    99FF1C                         	CMPB  _AL,#0FFh
00000D5E    DF10                           	JE    ??_153_ELSE
;001616                                    {
;001617                                            bl_td[10] = 255;
00000D60    B1FF1C                         	LDB   _AL,#0FFh
00000D63    C701FD001C                     	STB   _AL,(bl_td+10)
;001619                                            code_av = 147;
00000D68    B1931C                         	LDB   _AL,#93h
00000D6B    C70125011C                     	STB   _AL,code_av
;001620                                    }
                 ??_153_ELSE:
;001622                                    state_tdd4 = 2;
00000D70    B1021C                         	LDB   _AL,#02h
00000D73    C70127021C                     	STB   _AL,state_tdd4
;001624                                    privet = 128;
00000D78    B1801C                         	LDB   _AL,#80h
00000D7B    C70120021C                     	STB   _AL,privet
;001627                                    mode_td = 0;
00000D80    C701130200                     	STB   00h,mode_td
;001628                            }
                 ??_149_ELSE:
;001629                    }
                 ??_148_ELSE:
;001630            }
                 ??_135_ELSE:
  ??_state_4_2_check_td_1012:
;001634            __NOP();
00000D85    FD                             	NOP   
;001635    }
00000D86    65040018                       	ADD   _SP,#0004h
00000D8A    CC2A                           	POP   _HX
00000D8C    CC28                           	POP   _GX
00000D8E    CC26                           	POP   _FX
00000D90    CC24                           	POP   _EX
00000D92    F0                             	RET   
.ENDF
                        main:
;001640    void main()
00000D93    C824                           	PUSH  _EX
00000D95    C826                           	PUSH  _FX
00000D97    C828                           	PUSH  _GX
00000D99    C82A                           	PUSH  _HX
00000D9B    69040018                       	SUB   _SP,#0004h
;001652             __NOP();
00000D9F    FD                             	NOP   
;001657            tmp = WSR;
00000DA0    B0001C                         	LDB   tmp?main,WSR
;001658            WSR = tmp & 0x80;
00000DA3    71801C                         	ANDB  tmp?main,#80h
00000DA6    B01C00                         	LDB   WSR,tmp?main
;001660            if ((IOPORT0 & 0x1) != 0)
00000DA9    5101001C                       	ANDB  _AL,IOPORT0,#01h
00000DAD    98001C                         	CMPB  _AL,0
00000DB0    DF0A                           	JE    ??_154_ELSE
;001661            {
;001662                    num_AB = 1;
00000DB2    B1011C                         	LDB   _AL,#01h
00000DB5    C70115021C                     	STB   _AL,num_AB
;001663            }
00000DBA    2005                           	SJMP  ??_154_END
                 ??_154_ELSE:
;001665            {
;001666                    num_AB = 0;
00000DBC    C701150200                     	STB   00h,num_AB
;001667            }
                  ??_154_END:
;001671            SYS_OPT_CTRL_REG = num_AB + 1;
00000DC1    B30115021C                     	LDB   _AL,num_AB
00000DC6    171C                           	INCB  _AL
00000DC8    C70100FE1C                     	STB   _AL,SYS_OPT_CTRL_REG
;001676            __EI();
00000DCD    FB                             	EI    
;001681            timer_lim = timer27;
00000DCE    A30100001C                     	LD    _AX,timer27
00000DD3    C3019E001C                     	ST    _AX,timer_lim
;001685            INT_MASK = 0x1;
00000DD8    B10100                         	LDB   INT_MASK,#01h
;001686            INT_MASK1 = 0x2;
00000DDB    B10200                         	LDB   INT_MASK1,#02h
;001688            IOC1 = 0x27;
00000DDE    B12700                         	LDB   IOC1,#27h
;001694            tmp = WSR;                 //store WSR
00000DE1    B0001C                         	LDB   tmp?main,WSR
;001697            WSR = (tmp & 0x80);        //swap to HWindow0
00000DE4    51801C1D                       	ANDB  _AH,tmp?main,#80h
00000DE8    B01D00                         	LDB   WSR,_AH
;001699            __NOP();
00000DEB    FD                             	NOP   
;001700            __NOP();
00000DEC    FD                             	NOP   
;001702            SP_CON0 = 0x9;           // Mode = 1, Parity Bit = 0, Receive Enaible
00000DED    B10900                         	LDB   SP_CON0,#09h
;001704            BAUD_RATE0 = 0x70;          //write Baud 2400 rate value
00000DF0    B17000                         	LDB   BAUD_RATE0,#70h
;001705            BAUD_RATE0 = 0x82;
00000DF3    B18200                         	LDB   BAUD_RATE0,#82h
;001707            __NOP();
00000DF6    FD                             	NOP   
;001708            __NOP();
00000DF7    FD                             	NOP   
;001710            WSR = tmp;                 //Restore HWindow
00000DF8    B01C00                         	LDB   WSR,tmp?main
;001717            BSICONFIG = 0x5006;
00000DFB    A106501C                       	LD    _AX,#5006h
00000DFF    C30100001C                     	ST    _AX,BSICONFIG
;001723            BSICON_TERM = 0xEC01;
00000E04    A101EC1C                       	LD    _AX,#0EC01h
00000E08    C30100001C                     	ST    _AX,BSICON_TERM
;001728            tmp = WSR;
00000E0D    B0001C                         	LDB   tmp?main,WSR
;001729            WSR = tmp & 0x80;
00000E10    51801C1D                       	ANDB  _AH,tmp?main,#80h
00000E14    B01D00                         	LDB   WSR,_AH
;001731            p_mko = IOPORT1;
00000E17    C7011F0200                     	STB   IOPORT1,p_mko
;001733            p_mko = p_mko | 0x05;
00000E1C    B3011F021D                     	LDB   _AH,p_mko
00000E21    91051D                         	ORB   _AH,#05h
00000E24    C7011F021D                     	STB   _AH,p_mko
;001734            p_mko = p_mko & 0xF5;
00000E29    71F51D                         	ANDB  _AH,#0F5h
00000E2C    C7011F021D                     	STB   _AH,p_mko
;001736            IOPORT1 = p_mko;
00000E31    B3011F0200                     	LDB   IOPORT1,p_mko
;001738            WSR = tmp;
00000E36    B01C00                         	LDB   WSR,tmp?main
;001740            __NOP();
00000E39    FD                             	NOP   
;001744            PMLC_baud_rate(R_12MBPS,  &PMLC_TASK);
00000E3A    111C                           	CLRB  _AL
00000E3C    A100001E                       	LD    _BX,#PMLC_TASK
00000E40    EFBDF1                         	LCALL PMLC_baud_rate
;001748            PMLC_select_device(NOM_PDEV, PDEV_4, &PMLC_TASK);
00000E43    111C                           	CLRB  _AL
00000E45    B1041D                         	LDB   _AH,#04h
00000E48    A100001E                       	LD    _BX,#PMLC_TASK
00000E4C    EFB1F1                         	LCALL PMLC_select_device
;001749            PMLC_cmd_exec(&PMLC_TASK, ADDR_IO_CFG_REG, CMD_WRITE, 0x3, &(BTA06R_AN.IO_CFG_REG));
00000E4F    A100001C                       	LD    _AX,#PMLC_TASK
00000E53    B1801E                         	LDB   _BL,#80h
00000E56    B1041F                         	LDB   _BH,#04h
00000E59    B10320                         	LDB   _CL,#03h
00000E5C    A1060022                       	LD    _DX,#(BTA06R_AN+6)
00000E60    EF9DF1                         	LCALL PMLC_cmd_exec
;001751            PMLC_select_device(RSV_PDEV, PDEV_4, &PMLC_TASK);
00000E63    B1801C                         	LDB   _AL,#80h
00000E66    B1041D                         	LDB   _AH,#04h
00000E69    A100001E                       	LD    _BX,#PMLC_TASK
00000E6D    EF90F1                         	LCALL PMLC_select_device
;001752            PMLC_cmd_exec(&PMLC_TASK, ADDR_IO_CFG_REG, CMD_WRITE, 0x30, &(BTA06R_AN.IO_CFG_REG));
00000E70    A100001C                       	LD    _AX,#PMLC_TASK
00000E74    B1801E                         	LDB   _BL,#80h
00000E77    B1041F                         	LDB   _BH,#04h
00000E7A    B13020                         	LDB   _CL,#30h
00000E7D    A1060022                       	LD    _DX,#(BTA06R_AN+6)
00000E81    EF7CF1                         	LCALL PMLC_cmd_exec
;001754            PMLC_select_device(NOM_PDEV, PDEV_3, &PMLC_TASK);
00000E84    111C                           	CLRB  _AL
00000E86    B1031D                         	LDB   _AH,#03h
00000E89    A100001E                       	LD    _BX,#PMLC_TASK
00000E8D    EF70F1                         	LCALL PMLC_select_device
;001755            PMLC_cmd_exec(&PMLC_TASK, ADDR_IO_CFG_REG, CMD_WRITE, 0x1, &(BTA05R_AN.IO_CFG_REG));
00000E90    A100001C                       	LD    _AX,#PMLC_TASK
00000E94    B1801E                         	LDB   _BL,#80h
00000E97    B1041F                         	LDB   _BH,#04h
00000E9A    B10120                         	LDB   _CL,#01h
00000E9D    A1050022                       	LD    _DX,#(BTA05R_AN+5)
00000EA1    EF5CF1                         	LCALL PMLC_cmd_exec
;001757            PMLC_select_device(NOM_PDEV, PDEV_2, &PMLC_TASK);
00000EA4    111C                           	CLRB  _AL
00000EA6    B1021D                         	LDB   _AH,#02h
00000EA9    A100001E                       	LD    _BX,#PMLC_TASK
00000EAD    EF50F1                         	LCALL PMLC_select_device
;001758            PMLC_cmd_exec(&PMLC_TASK, ADDR_IO_CFG_REG, CMD_WRITE, 0x1, &(BTA05R_AN.IO_CFG_REG));
00000EB0    A100001C                       	LD    _AX,#PMLC_TASK
00000EB4    B1801E                         	LDB   _BL,#80h
00000EB7    B1041F                         	LDB   _BH,#04h
00000EBA    B10120                         	LDB   _CL,#01h
00000EBD    A1050022                       	LD    _DX,#(BTA05R_AN+5)
00000EC1    EF3CF1                         	LCALL PMLC_cmd_exec
;001760            PMLC_select_device(RSV_PDEV, PDEV_2, &PMLC_TASK);
00000EC4    B1801C                         	LDB   _AL,#80h
00000EC7    B1021D                         	LDB   _AH,#02h
00000ECA    A100001E                       	LD    _BX,#PMLC_TASK
00000ECE    EF2FF1                         	LCALL PMLC_select_device
;001761            PMLC_cmd_exec(&PMLC_TASK, ADDR_IO_CFG_REG, CMD_WRITE, 0x10, &(BTA05R_AN.IO_CFG_REG));
00000ED1    A100001C                       	LD    _AX,#PMLC_TASK
00000ED5    B1801E                         	LDB   _BL,#80h
00000ED8    B1041F                         	LDB   _BH,#04h
00000EDB    B11020                         	LDB   _CL,#10h
00000EDE    A1050022                       	LD    _DX,#(BTA05R_AN+5)
00000EE2    EF1BF1                         	LCALL PMLC_cmd_exec
;001763            PMLC_select_device(RSV_PDEV, PDEV_3, &PMLC_TASK);
00000EE5    B1801C                         	LDB   _AL,#80h
00000EE8    B1031D                         	LDB   _AH,#03h
00000EEB    A100001E                       	LD    _BX,#PMLC_TASK
00000EEF    EF0EF1                         	LCALL PMLC_select_device
;001764            PMLC_cmd_exec(&PMLC_TASK, ADDR_IO_CFG_REG, CMD_WRITE, 0x10, &(BTA05R_AN.IO_CFG_REG));
00000EF2    A100001C                       	LD    _AX,#PMLC_TASK
00000EF6    B1801E                         	LDB   _BL,#80h
00000EF9    B1041F                         	LDB   _BH,#04h
00000EFC    B11020                         	LDB   _CL,#10h
00000EFF    A1050022                       	LD    _DX,#(BTA05R_AN+5)
00000F03    EFFAF0                         	LCALL PMLC_cmd_exec
;001769            PMLC_select_device(NOM_PDEV, PDEV_0, &PMLC_TASK);
00000F06    111C                           	CLRB  _AL
00000F08    111D                           	CLRB  _AH
00000F0A    A100001E                       	LD    _BX,#PMLC_TASK
00000F0E    EFEFF0                         	LCALL PMLC_select_device
;001770            init_bav03r(&PMLC_TASK, &bav03r_N);
00000F11    A100001C                       	LD    _AX,#PMLC_TASK
00000F15    A100001E                       	LD    _BX,#bav03r_N
00000F19    EFE4F0                         	LCALL init_bav03r
;001775            if (num_AB == 0)
00000F1C    B30115021C                     	LDB   _AL,num_AB
00000F21    98001C                         	CMPB  _AL,0
00000F24    D70E                           	JNE   ??_155_ELSE
;001776            {
;001777                    PMLC_select_device(NOM_PDEV, PDEV_1, &PMLC_TASK);
00000F26    111C                           	CLRB  _AL
00000F28    B1011D                         	LDB   _AH,#01h
00000F2B    A100001E                       	LD    _BX,#PMLC_TASK
00000F2F    EFCEF0                         	LCALL PMLC_select_device
;001778            }
00000F32    200D                           	SJMP  ??_155_END
                 ??_155_ELSE:
;001780            {
;001781                    PMLC_select_device(RSV_PDEV, PDEV_1, &PMLC_TASK);
00000F34    B1801C                         	LDB   _AL,#80h
00000F37    B1011D                         	LDB   _AH,#01h
00000F3A    A100001E                       	LD    _BX,#PMLC_TASK
00000F3E    EFBFF0                         	LCALL PMLC_select_device
;001782            }
                  ??_155_END:
;001784            PMLC_cmd_exec(&PMLC_TASK, ADDR_IO_CFG_REG, CMD_WRITE, 0x1F, &(BCV03R_N.IO_CFG_REG));
00000F41    A100001C                       	LD    _AX,#PMLC_TASK
00000F45    B1801E                         	LDB   _BL,#80h
00000F48    B1041F                         	LDB   _BH,#04h
00000F4B    B11F20                         	LDB   _CL,#1Fh
00000F4E    A17D0022                       	LD    _DX,#(BCV03R_N+5)
00000F52    EFABF0                         	LCALL PMLC_cmd_exec
;001790            if (num_AB == 0)
00000F55    B30115021C                     	LDB   _AL,num_AB
00000F5A    98001C                         	CMPB  _AL,0
00000F5D    D70F                           	JNE   ??_156_ELSE
;001791            {
;001792                    PMLC_select_device(RSV_PDEV, PDEV_1, &PMLC_TASK);
00000F5F    B1801C                         	LDB   _AL,#80h
00000F62    B1011D                         	LDB   _AH,#01h
00000F65    A100001E                       	LD    _BX,#PMLC_TASK
00000F69    EF94F0                         	LCALL PMLC_select_device
;001793            }
00000F6C    200C                           	SJMP  ??_156_END
                 ??_156_ELSE:
;001795            {
;001796                    PMLC_select_device(NOM_PDEV, PDEV_1, &PMLC_TASK);
00000F6E    111C                           	CLRB  _AL
00000F70    B1011D                         	LDB   _AH,#01h
00000F73    A100001E                       	LD    _BX,#PMLC_TASK
00000F77    EF86F0                         	LCALL PMLC_select_device
;001797            }
                  ??_156_END:
;001799            PMLC_cmd_exec(&PMLC_TASK, ADDR_IO_CFG_REG, CMD_WRITE, 0x0, &(BCV04R_N.IO_CFG_REG));
00000F7A    A100001C                       	LD    _AX,#PMLC_TASK
00000F7E    B1801E                         	LDB   _BL,#80h
00000F81    B1041F                         	LDB   _BH,#04h
00000F84    1120                           	CLRB  _CL
00000F86    A1830022                       	LD    _DX,#(BCV04R_N+1)
00000F8A    EF73F0                         	LCALL PMLC_cmd_exec
;001804            __DI();
00000F8D    FA                             	DI    
;001806            SYS_WDT_START = 0x3C;
00000F8E    B13C1C                         	LDB   _AL,#3Ch
00000F91    C70100FC1C                     	STB   _AL,SYS_WDT_START
;001807            SYS_WDT_REPEAT = 0xA5;
00000F96    B1A51C                         	LDB   _AL,#0A5h
00000F99    C70180FC1C                     	STB   _AL,SYS_WDT_REPEAT
;001809            __EI();
00000F9E    FB                             	EI    
;001814            for (i=0; i < 12; i++)
00000F9F    0124                           	CLR   i?main
00000FA1    200C                           	SJMP  ??_157_CHECK
                 ??_157_LOOP:
;001815            {
;001816                    bl_td[i] = 0;
00000FA3    C725F30000                     	STB   00h,bl_td[i?main]
;001817                    bums_td[i] = 0;
00000FA8    C725070100                     	STB   00h,bums_td[i?main]
;001818            }
00000FAD    0724                           	INC   i?main
                ??_157_CHECK:
00000FAF    890C0024                       	CMP   i?main,#000Ch
00000FB3    DEEE                           	JLT   ??_157_LOOP
;001823            for (io = 0; io <= 2; io++)
00000FB5    0124                           	CLR   io?main
00000FB7    2007                           	SJMP  ??_158_CHECK
                 ??_158_LOOP:
;001824            {
;001825                    *(volatile unsigned short*)(0x842 + io) = 0;
00000FB9    C325420800                     	ST    00h,0842h[io?main]
;001826            }
00000FBE    0724                           	INC   io?main
                ??_158_CHECK:
00000FC0    89030024                       	CMP   io?main,#0003h
00000FC4    DEF3                           	JLT   ??_158_LOOP
;001830            goto output_tm;
00000FC6    E73028                         	LJMP  ??_output_tm_main
          ??_Main_cycle_main:
;001837            __DI();
00000FC9    FA                             	DI    
;001838            SYS_WDT_START = 0x3C;
00000FCA    B13C1C                         	LDB   _AL,#3Ch
00000FCD    C70100FC1C                     	STB   _AL,SYS_WDT_START
;001839            SYS_WDT_REPEAT = 0xA5;
00000FD2    B1A51C                         	LDB   _AL,#0A5h
00000FD5    C70180FC1C                     	STB   _AL,SYS_WDT_REPEAT
;001840            __EI();
00000FDA    FB                             	EI    
;001844            if ((tim_25 == 0) && (tim_25_t == 0) && (tim_25_otk == 0))
00000FDB    B3012E021C                     	LDB   _AL,tim_25
00000FE0    98001C                         	CMPB  _AL,0
00000FE3    D741                           	JNE   ??_159_ELSE
00000FE5    B30130021C                     	LDB   _AL,tim_25_t
00000FEA    98001C                         	CMPB  _AL,0
00000FED    D737                           	JNE   ??_159_ELSE
00000FEF    B3012F021C                     	LDB   _AL,tim_25_otk
00000FF4    98001C                         	CMPB  _AL,0
00000FF7    D72D                           	JNE   ??_159_ELSE
;001845            {
;001850                    if (ta_vozd == 255)
00000FF9    B3012D021C                     	LDB   _AL,ta_vozd
00000FFE    99FF1C                         	CMPB  _AL,#0FFh
00001001    D71E                           	JNE   ??_162_ELSE
;001851                    {
;001852                            count_ta_vozd = count_ta_vozd + 1;
00001003    A3018A001C                     	LD    _AX,count_ta_vozd
00001008    071C                           	INC   _AX
0000100A    C3018A001C                     	ST    _AX,count_ta_vozd
;001854                            if (count_ta_vozd > 5000)
0000100F    8989131C                       	CMP   _AX,#1389h
00001013    D311                           	JNC   ??_162_END
;001855                            {
;001856                                    ta_vozd = 0;
00001015    C7012D0200                     	STB   00h,ta_vozd
;001858                                    count_ta_vozd = 0;
0000101A    C3018A0000                     	ST    00h,count_ta_vozd
;001859                            }
;001860                    }
0000101F    2005                           	SJMP  ??_162_END
                 ??_162_ELSE:
;001862                    {
;001863                            count_ta_vozd = 0;
00001021    C3018A0000                     	ST    00h,count_ta_vozd
;001864                    }
                  ??_162_END:
;001865            }
                 ??_159_ELSE:
;001869            if (prog_com != 0)
00001026    B30121021C                     	LDB   _AL,prog_com
0000102B    98001C                         	CMPB  _AL,0
0000102E    DF18                           	JE    ??_164_ELSE
;001870            {
;001871                    num_com = prog_com - 1;
00001030    151C                           	DECB  _AL
00001032    C7010E001C                     	STB   _AL,num_com
;001873                    prog_com = 0;
00001037    C701210200                     	STB   00h,prog_com
;001875                    fl_com = 2048;
0000103C    A100081C                       	LD    _AX,#0800h
00001040    C30196001C                     	ST    _AX,fl_com
;001877                    goto command_start;
00001045    E74404                         	LJMP  ??_command_start_main
;001878            }
                 ??_164_ELSE:
;001883            delay_uart = 0;
00001048    C301940000                     	ST    00h,delay_uart
;001890            status_uart = SP_STAT0;
0000104D    C701280200                     	STB   SP_STAT0,status_uart
;001892            if ((status_uart & 0x40) == 0)
00001052    B30128021C                     	LDB   _AL,status_uart
00001057    71401C                         	ANDB  _AL,#40h
0000105A    98001C                         	CMPB  _AL,0
;001893            {
;001894                    goto otkl_ta_gh;
0000105D    D703                           	JNE   ??_otkl_ta_gh_main_BYPASS_105D
0000105F    E7F815                         	LJMP  ??_otkl_ta_gh_main
??_otkl_ta_gh_main_BYPASS_105D:
;001895            }
       ??_Yes_uart_data_main:
;001901            num_pm = SBUF_RX0;
00001062    C701170200                     	STB   SBUF_RX0,num_pm
;001902            __NOP();
00001067    FD                             	NOP   
;001904            if (num_pm != 11)
00001068    B30117021C                     	LDB   _AL,num_pm
0000106D    990B1C                         	CMPB  _AL,#0Bh
00001070    D702                           	JNE   ??_166_ELSE_BYPASS_1070
00001072    21FD                           	SJMP  ??_166_ELSE
     ??_166_ELSE_BYPASS_1070:
;001905            {
;001911                    if (num_pm == 120)
00001074    99781C                         	CMPB  _AL,#78h
00001077    D717                           	JNE   ??_167_ELSE
;001912                    {
;001913                            kpa_cm = 1;
00001079    B1011C                         	LDB   _AL,#01h
0000107C    C70157011C                     	STB   _AL,kpa_cm
;001915                            SBUF_TX0 = 85 + num_AB * 85;
00001081    B30115021C                     	LDB   _AL,num_AB
00001086    7D551C                         	MULUB _AX,#55h
00001089    75551C                         	ADDB  _AL,#55h
0000108C    B01C00                         	LDB   SBUF_TX0,_AL
;001916                            __NOP();
0000108F    FD                             	NOP   
;001917                    }
                 ??_167_ELSE:
;001922                    if ((num_pm & 0x05) == 0x05)
00001090    B30117021C                     	LDB   _AL,num_pm
00001095    121C                           	NOTB  _AL
00001097    71051C                         	ANDB  _AL,#05h
0000109A    98001C                         	CMPB  _AL,0
0000109D    DF02                           	JE    ??_168_ELSE_BYPASS_109D
0000109F    2115                           	SJMP  ??_168_ELSE
     ??_168_ELSE_BYPASS_109D:
;001923                    {
;001927                            if ((num_pm & 0x70) != 0x70)
000010A1    B30117021C                     	LDB   _AL,num_pm
000010A6    121C                           	NOTB  _AL
000010A8    71701C                         	ANDB  _AL,#70h
000010AB    98001C                         	CMPB  _AL,0
000010AE    DF0D                           	JE    ??_169_ELSE
;001928                            {
;001929                                    inf_bvm = num_pm & 0xF0;
000010B0    B30117021C                     	LDB   _AL,num_pm
000010B5    71F01C                         	ANDB  _AL,#0F0h
000010B8    C70156011C                     	STB   _AL,inf_bvm
;001930                            }
                 ??_169_ELSE:
;001936                            if (ch_mko == 1)
000010BD    B30116011C                     	LDB   _AL,ch_mko
000010C2    99011C                         	CMPB  _AL,#01h
000010C5    DF02                           	JE    ??_170_ELSE_BYPASS_10C5
000010C7    20E9                           	SJMP  ??_170_ELSE
     ??_170_ELSE_BYPASS_10C5:
;001937                            {
;001939                                    SBUF_TX0 = 85;
000010C9    B15500                         	LDB   SBUF_TX0,#55h
;001941                                    delay_uart = 0;
000010CC    C301940000                     	ST    00h,delay_uart
;001944                                    mko_buf_out = mko_buf_out + 1;
000010D1    B3010E021C                     	LDB   _AL,mko_buf_out
000010D6    171C                           	INCB  _AL
000010D8    C7010E021C                     	STB   _AL,mko_buf_out
;001947                                    mko_out_h = mko_buf[0][mko_buf_out - 1];
000010DD    111D                           	CLRB  _AH
000010DF    B31D58011C                     	LDB   _AL,mko_out_h-00B9h[_AX]
000010E4    C70111021C                     	STB   _AL,mko_out_h
;001948                                    mko_out_l = mko_buf[1][mko_buf_out - 1];
000010E9    AF010E021C                     	LDBZE _AX,mko_buf_out
000010EE    B31DB2011C                     	LDB   _AL,(mko_buf+89)[_AX]
000010F3    C70112021C                     	STB   _AL,mko_out_l
;001951                                    if (mko_buf_out >= 90)
000010F8    B3010E021C                     	LDB   _AL,mko_buf_out
000010FD    995A1C                         	CMPB  _AL,#5Ah
00001100    D305                           	JNC   ??_171_ELSE
;001952                                    {
;001953                                            mko_buf_out = 0;
00001102    C7010E0200                     	STB   00h,mko_buf_out
;001954                                    }
                 ??_171_ELSE:
;001959                                    if  (mko_buf_out == mko_buf_in)
00001107    B3010E021C                     	LDB   _AL,mko_buf_out
0000110C    9B010D021C                     	CMPB  _AL,mko_buf_in
00001111    D705                           	JNE   ??_172_ELSE
;001960                                    {
;001961                                            ch_mko = 0;
00001113    C701160100                     	STB   00h,ch_mko
;001962                                    }
                 ??_172_ELSE:
          ??_Send_h_mko_main:
;001967                                    status_uart = SP_STAT0;
00001118    C701280200                     	STB   SP_STAT0,status_uart
;001969                                    if (( status_uart & 0x8) != 0)
0000111D    B30128021C                     	LDB   _AL,status_uart
00001122    71081C                         	ANDB  _AL,#08h
00001125    98001C                         	CMPB  _AL,0
00001128    DF08                           	JE    ??_173_ELSE
;001970                                    {
;001971                                            SBUF_TX0 = mko_out_h;
0000112A    B301110200                     	LDB   SBUF_TX0,mko_out_h
;001972                                            __NOP();
0000112F    FD                             	NOP   
;001973                                    }
00001130    2016                           	SJMP  ??_173_END
                 ??_173_ELSE:
;001975                                    {
;001976                                            delay_uart = delay_uart + 1;
00001132    A30194001C                     	LD    _AX,delay_uart
00001137    071C                           	INC   _AX
00001139    C30194001C                     	ST    _AX,delay_uart
;001977                                            __NOP();
0000113E    FD                             	NOP   
;001978                                            __NOP();
0000113F    FD                             	NOP   
;001980                                            if (delay_uart > 32000)
00001140    89017D1C                       	CMP   _AX,#7D01h
;001981                                            {
;001982                                                    goto Fin_85;
00001144    DB6F                           	JC    ??_Fin_85_main
;001983                                            }
;001985                                            goto Send_h_mko;
00001146    27D0                           	SJMP  ??_Send_h_mko_main
;001986                                    }
                  ??_173_END:
;001988                                    delay_uart = 0;
00001148    C301940000                     	ST    00h,delay_uart
          ??_Send_l_mko_main:
;001994                                    status_uart = SP_STAT0;
0000114D    C701280200                     	STB   SP_STAT0,status_uart
;001996                                    if (( status_uart & 0x8) != 0)
00001152    B30128021C                     	LDB   _AL,status_uart
00001157    71081C                         	ANDB  _AL,#08h
0000115A    98001C                         	CMPB  _AL,0
0000115D    DF33                           	JE    ??_175_ELSE
;001997                                    {
;001998                                            SBUF_TX0 = mko_out_l;
0000115F    B301120200                     	LDB   SBUF_TX0,mko_out_l
;002000                                            __NOP();
00001164    FD                             	NOP   
;002002                                            last_tr_out = 256 * mko_out_h + mko_out_l;
00001165    B30111021C                     	LDB   _AL,mko_out_h
0000116A    09081C                         	SHL   _AX,#08h
0000116D    AF0112021E                     	LDBZE _BX,mko_out_l
00001172    641E1C                         	ADD   _AX,_BX
00001175    C3019C001C                     	ST    _AX,last_tr_out
;002004                                            count_tr_out ++;
0000117A    B3012D011C                     	LDB   _AL,count_tr_out
0000117F    171C                           	INCB  _AL
00001181    C7012D011C                     	STB   _AL,count_tr_out
;002006                                            if (count_tr_out >= 64)
00001186    99401C                         	CMPB  _AL,#40h
00001189    D324                           	JNC   ??_175_END
;002007                                            {
;002008                                                    count_tr_out = 0;
0000118B    C7012D0100                     	STB   00h,count_tr_out
;002009                                            }
;002011                                    }
00001190    201D                           	SJMP  ??_175_END
                 ??_175_ELSE:
;002013                                    {
;002014                                            delay_uart = delay_uart + 1;
00001192    A30194001C                     	LD    _AX,delay_uart
00001197    071C                           	INC   _AX
00001199    C30194001C                     	ST    _AX,delay_uart
;002016                                            __NOP();
0000119E    FD                             	NOP   
;002017                                            __NOP();
0000119F    FD                             	NOP   
;002019                                            if (delay_uart > 32000)
000011A0    89017D1C                       	CMP   _AX,#7D01h
000011A4    D3A7                           	JNC   ??_Send_l_mko_main
;002020                                            {
;002021                                                    delay_uart = 0;
000011A6    C301940000                     	ST    00h,delay_uart
;002023                                                    goto Fin_85;
000011AB    2008                           	SJMP  ??_Fin_85_main
;002024                                            }
;002026                                            goto Send_l_mko;
000011AD    279E                           	SJMP  ??_Send_l_mko_main
;002027                                    }
                  ??_175_END:
;002029                            __NOP();
000011AF    FD                             	NOP   
;002031                            }
000011B0    2003                           	SJMP  ??_170_END
                 ??_170_ELSE:
;002033                            {
;002037                                    SBUF_TX0 = 170;
000011B2    B1AA00                         	LDB   SBUF_TX0,#0AAh
;002038                            }
                  ??_170_END:
              ??_Fin_85_main:
;002042                            __NOP();
000011B5    FD                             	NOP   
;002043                    }
                 ??_168_ELSE:
;002047                    if (num_pm == 112)
000011B6    B30117021C                     	LDB   _AL,num_pm
000011BB    99701C                         	CMPB  _AL,#70h
000011BE    D74F                           	JNE   ??_178_ELSE
;002048                    {
;002049                            count_otk = ((count_otk_h & 0x7) << 3) + (count_otk_g & 0x7);
000011C0    B3012B011C                     	LDB   _AL,count_otk_h
000011C5    71071C                         	ANDB  _AL,#07h
000011C8    19031C                         	SHLB  _AL,#03h
000011CB    B3012A011D                     	LDB   _AH,count_otk_g
000011D0    71071D                         	ANDB  _AH,#07h
000011D3    741D1C                         	ADDB  _AL,_AH
000011D6    C70129011C                     	STB   _AL,count_otk
;002053                            if (alg == 1)
000011DB    B301F0001C                     	LDB   _AL,alg
000011E0    99011C                         	CMPB  _AL,#01h
000011E3    D70D                           	JNE   ??_179_ELSE
;002054                            {
;002055                                    count_otk = count_otk + 64;
000011E5    B30129011C                     	LDB   _AL,count_otk
000011EA    75401C                         	ADDB  _AL,#40h
000011ED    C70129011C                     	STB   _AL,count_otk
;002056                            }
                 ??_179_ELSE:
;002058                            if (mode_td == 1)
000011F2    B30113021C                     	LDB   _AL,mode_td
000011F7    99011C                         	CMPB  _AL,#01h
000011FA    D70D                           	JNE   ??_180_ELSE
;002059                            {
;002060                                    count_otk = count_otk + 128;
000011FC    B30129011C                     	LDB   _AL,count_otk
00001201    75801C                         	ADDB  _AL,#80h
00001204    C70129011C                     	STB   _AL,count_otk
;002061                            }
                 ??_180_ELSE:
;002064                            SBUF_TX0 = count_otk;
00001209    B301290100                     	LDB   SBUF_TX0,count_otk
;002066                            __NOP();
0000120E    FD                             	NOP   
;002067                    }
                 ??_178_ELSE:
;002071                    if (num_pm == 114)
0000120F    B30117021C                     	LDB   _AL,num_pm
00001214    99721C                         	CMPB  _AL,#72h
00001217    D744                           	JNE   ??_181_ELSE
;002072                    {
;002073                            kpa_cm = 1;
00001219    B1011C                         	LDB   _AL,#01h
0000121C    C70157011C                     	STB   _AL,kpa_cm
;002075                            hist_tr = privet + (avt_mode2 <<6 ) + (avt_mode1 << 4) + ((hist_tr_h & 0x3) << 2) + (hist_tr_g & 0x3);
00001221    B301F2001C                     	LDB   _AL,avt_mode2
00001226    19061C                         	SHLB  _AL,#06h
00001229    770120021C                     	ADDB  _AL,privet
0000122E    B301F1001D                     	LDB   _AH,avt_mode1
00001233    19041D                         	SHLB  _AH,#04h
00001236    741D1C                         	ADDB  _AL,_AH
00001239    B30155011D                     	LDB   _AH,hist_tr_h
0000123E    71031D                         	ANDB  _AH,#03h
00001241    19021D                         	SHLB  _AH,#02h
00001244    741D1C                         	ADDB  _AL,_AH
00001247    B30154011D                     	LDB   _AH,hist_tr_g
0000124C    71031D                         	ANDB  _AH,#03h
0000124F    741D1C                         	ADDB  _AL,_AH
00001252    C70153011C                     	STB   _AL,hist_tr
;002077                            SBUF_TX0 = hist_tr;
00001257    B301530100                     	LDB   SBUF_TX0,hist_tr
;002079                            __NOP();
0000125C    FD                             	NOP   
;002080                    }
                 ??_181_ELSE:
;002085                    if (num_pm == 45)
0000125D    B30117021C                     	LDB   _AL,num_pm
00001262    992D1C                         	CMPB  _AL,#2Dh
00001265    D707                           	JNE   ??_182_ELSE
;002086                    {
;002087                            SBUF_TX0 = 205;
00001267    B1CD00                         	LDB   SBUF_TX0,#0CDh
;002088                            __NOP();
0000126A    FD                             	NOP   
;002090                            goto Send12_td;
0000126B    E7F740                         	LJMP  ??_Send12_td_main
;002091                    }
                 ??_182_ELSE:
;002093                    goto otkl_ta_gh;
0000126E    E7E913                         	LJMP  ??_otkl_ta_gh_main
;002094            }
                 ??_166_ELSE:
;002099            status_uart = SP_STAT0;
00001271    C701280200                     	STB   SP_STAT0,status_uart
;002101            if (( status_uart & 0x8) != 0)
00001276    B30128021C                     	LDB   _AL,status_uart
0000127B    71081C                         	ANDB  _AL,#08h
0000127E    98001C                         	CMPB  _AL,0
00001281    DF0F                           	JE    ??_183_ELSE
;002102            {
;002103                    SBUF_TX0 = 11 + num_AB * 32;
00001283    B30115021C                     	LDB   _AL,num_AB
00001288    19051C                         	SHLB  _AL,#05h
0000128B    750B1C                         	ADDB  _AL,#0Bh
0000128E    B01C00                         	LDB   SBUF_TX0,_AL
;002104                    __NOP();
00001291    FD                             	NOP   
;002105            }
                 ??_183_ELSE:
;002108            delay_uart = 0;
00001292    C301940000                     	ST    00h,delay_uart
         ??_delay_uart1_main:
;002114            status_uart = SP_STAT0;
00001297    C701280200                     	STB   SP_STAT0,status_uart
;002116            if ((status_uart & 0x40) != 0)
0000129C    B30128021C                     	LDB   _AL,status_uart
000012A1    71401C                         	ANDB  _AL,#40h
000012A4    98001C                         	CMPB  _AL,0
;002117            {
;002118                    goto receive_num_com;
000012A7    D719                           	JNE   ??_receive_num_com_main
;002119            }
;002121            delay_uart = delay_uart + 1;
000012A9    A30194001C                     	LD    _AX,delay_uart
000012AE    071C                           	INC   _AX
000012B0    C30194001C                     	ST    _AX,delay_uart
;002123            __NOP();
000012B5    FD                             	NOP   
;002124            __NOP();
000012B6    FD                             	NOP   
;002126            if (delay_uart > 30000)
000012B7    8931751C                       	CMP   _AX,#7531h
;002127            {
;002128                    goto otkl_ta_gh;
000012BB    D303                           	JNC   ??_otkl_ta_gh_main_BYPASS_12BB
000012BD    E79A13                         	LJMP  ??_otkl_ta_gh_main
??_otkl_ta_gh_main_BYPASS_12BB:
;002129            }
;002131            goto delay_uart1;
000012C0    27D5                           	SJMP  ??_delay_uart1_main
     ??_receive_num_com_main:
;002136            num_com1 = SBUF_RX0;
000012C2    C701160200                     	STB   SBUF_RX0,num_com1
;002137            __NOP();
000012C7    FD                             	NOP   
;002142            status_uart = SP_STAT0;
000012C8    C701280200                     	STB   SP_STAT0,status_uart
;002144            if (( status_uart & 0x8) != 0)
000012CD    B30128021C                     	LDB   _AL,status_uart
000012D2    71081C                         	ANDB  _AL,#08h
000012D5    98001C                         	CMPB  _AL,0
000012D8    DF06                           	JE    ??_186_ELSE
;002145            {
;002146                    SBUF_TX0 = num_com1;
000012DA    B301160200                     	LDB   SBUF_TX0,num_com1
;002147                    __NOP();
000012DF    FD                             	NOP   
;002148            }
                 ??_186_ELSE:
;002152            delay_uart = 0;
000012E0    C301940000                     	ST    00h,delay_uart
         ??_delay_uart2_main:
;002158            status_uart = SP_STAT0;
000012E5    C701280200                     	STB   SP_STAT0,status_uart
;002160            if ((status_uart & 0x40) != 0)
000012EA    B30128021C                     	LDB   _AL,status_uart
000012EF    71401C                         	ANDB  _AL,#40h
000012F2    98001C                         	CMPB  _AL,0
;002161            {
;002162                    goto receive_num_com1;
000012F5    D719                           	JNE   ??_receive_num_com1_main
;002163            }
;002165            delay_uart = delay_uart + 1;
000012F7    A30194001C                     	LD    _AX,delay_uart
000012FC    071C                           	INC   _AX
000012FE    C30194001C                     	ST    _AX,delay_uart
;002166            __NOP();
00001303    FD                             	NOP   
;002167            __NOP();
00001304    FD                             	NOP   
;002169            if (delay_uart > 30000)
00001305    8931751C                       	CMP   _AX,#7531h
;002170            {
;002171                    goto otkl_ta_gh;
00001309    D303                           	JNC   ??_otkl_ta_gh_main_BYPASS_1309
0000130B    E74C13                         	LJMP  ??_otkl_ta_gh_main
??_otkl_ta_gh_main_BYPASS_1309:
;002172            }
;002174            goto delay_uart2;
0000130E    27D5                           	SJMP  ??_delay_uart2_main
    ??_receive_num_com1_main:
;002180            num_com = SBUF_RX0;
00001310    C7010E0000                     	STB   SBUF_RX0,num_com
;002181            __NOP();
00001315    FD                             	NOP   
;002184            last_command = num_com;
00001316    B3010E001C                     	LDB   _AL,num_com
0000131B    C70158011C                     	STB   _AL,last_command
;002189            if (num_com1 != num_com)
00001320    B30116021C                     	LDB   _AL,num_com1
00001325    9B010E001C                     	CMPB  _AL,num_com
0000132A    D702                           	JNE   ??_189_ELSE_BYPASS_132A
0000132C    2139                           	SJMP  ??_189_ELSE
     ??_189_ELSE_BYPASS_132A:
;002190            {
;002193                    if (num_com1 == 77)
0000132E    994D1C                         	CMPB  _AL,#4Dh
00001331    DF02                           	JE    ??_190_ELSE_BYPASS_1331
00001333    20B8                           	SJMP  ??_190_ELSE
     ??_190_ELSE_BYPASS_1331:
;002194                    {
;002197                            GR26_27 = 0;
00001335    C701EC0000                     	STB   00h,GR26_27
;002198                            GR20_19 = 0;
0000133A    C701E80000                     	STB   00h,GR20_19
;002199                            GR19_18 = 0;
0000133F    C701E70000                     	STB   00h,GR19_18
;002200                            GR18_17 = 0;
00001344    C701E60000                     	STB   00h,GR18_17
;002201                            GR24_25 = 0;
00001349    C701EB0000                     	STB   00h,GR24_25
;002203                            if (num_com >= 128)
0000134E    B3010E001C                     	LDB   _AL,num_com
00001353    99801C                         	CMPB  _AL,#80h
00001356    D30A                           	JNC   ??_191_ELSE
;002204                            {
;002205                                    mode_td = 1;
00001358    B1011C                         	LDB   _AL,#01h
0000135B    C70113021C                     	STB   _AL,mode_td
;002206                            }
00001360    2005                           	SJMP  ??_191_END
                 ??_191_ELSE:
;002208                            {
;002209                                    mode_td = 0;
00001362    C701130200                     	STB   00h,mode_td
;002210                            }
                  ??_191_END:
;002214                            if (num_com >= 64)
00001367    B3010E001C                     	LDB   _AL,num_com
0000136C    99401C                         	CMPB  _AL,#40h
0000136F    D332                           	JNC   ??_192_ELSE
;002215                            {
;002216                                    alg = 1;
00001371    B1011C                         	LDB   _AL,#01h
00001374    C701F0001C                     	STB   _AL,alg
;002218                                    vent_max = 27;
00001379    B11B1C                         	LDB   _AL,#1Bh
0000137C    C70114001C                     	STB   _AL,vent_max
;002219                                    vent_min = 19;
00001381    B1131C                         	LDB   _AL,#13h
00001384    C70115001C                     	STB   _AL,vent_min
;002220                                    nagr_g = 17;
00001389    B1111C                         	LDB   _AL,#11h
0000138C    C7010B001C                     	STB   _AL,nagr_g
;002221                                    nagr_h = 18;
00001391    B1121C                         	LDB   _AL,#12h
00001394    C7010C001C                     	STB   _AL,nagr_h
;002222                                    nagr_off = 25;
00001399    B1191C                         	LDB   _AL,#19h
0000139C    C7010D001C                     	STB   _AL,nagr_off
;002223                            }
000013A1    202D                           	SJMP  ??_192_END
                 ??_192_ELSE:
;002225                            {
;002226                                    alg = 0;
000013A3    C701F00000                     	STB   00h,alg
;002228                                    vent_max = 26;
000013A8    B11A1C                         	LDB   _AL,#1Ah
000013AB    C70114001C                     	STB   _AL,vent_max
;002229                                    vent_min = 20;
000013B0    B1141C                         	LDB   _AL,#14h
000013B3    C70115001C                     	STB   _AL,vent_min
;002230                                    nagr_g = 18;
000013B8    B1121C                         	LDB   _AL,#12h
000013BB    C7010B001C                     	STB   _AL,nagr_g
;002231                                    nagr_h = 19;
000013C0    B1131C                         	LDB   _AL,#13h
000013C3    C7010C001C                     	STB   _AL,nagr_h
;002232                                    nagr_off = 24;
000013C8    B1181C                         	LDB   _AL,#18h
000013CB    C7010D001C                     	STB   _AL,nagr_off
;002233                            }
                  ??_192_END:
;002237                            count_otk_g = num_com & 0x7;
000013D0    B3010E001C                     	LDB   _AL,num_com
000013D5    71071C                         	ANDB  _AL,#07h
000013D8    C7012A011C                     	STB   _AL,count_otk_g
;002239                            count_otk_h = (num_com >>3) & 0x7;
000013DD    B3010E001C                     	LDB   _AL,num_com
000013E2    18031C                         	SHRB  _AL,#03h
000013E5    71071C                         	ANDB  _AL,#07h
000013E8    C7012B011C                     	STB   _AL,count_otk_h
;002240                    }
                 ??_190_ELSE:
;002242                    if (num_com1 == 78)
000013ED    B30116021C                     	LDB   _AL,num_com1
000013F2    994E1C                         	CMPB  _AL,#4Eh
000013F5    D76D                           	JNE   ??_193_ELSE
;002243                    {
;002246                            ish_g = 0;
000013F7    C701070000                     	STB   00h,ish_g
;002247                            ish_h = 0;
000013FC    C701080000                     	STB   00h,ish_h
;002251                            hist_tr_g = num_com & 0x3;
00001401    B3010E001C                     	LDB   _AL,num_com
00001406    71031C                         	ANDB  _AL,#03h
00001409    C70154011C                     	STB   _AL,hist_tr_g
;002253                            g_fix = 0x3 << (2 * hist_tr_g);
0000140E    B30154011D                     	LDB   _AH,hist_tr_g
00001413    19011D                         	SHLB  _AH,#01h
00001416    B1031C                         	LDB   _AL,#03h
00001419    191D1C                         	SHLB  _AL,_AH
0000141C    C7014E011C                     	STB   _AL,g_fix
;002255                            hist_tr_h = (num_com >> 2) & 0x3;
00001421    B3010E001C                     	LDB   _AL,num_com
00001426    18021C                         	SHRB  _AL,#02h
00001429    71031C                         	ANDB  _AL,#03h
0000142C    C70155011C                     	STB   _AL,hist_tr_h
;002257                            h_fix = 0x3 << (2 * hist_tr_h);
00001431    B30155011D                     	LDB   _AH,hist_tr_h
00001436    19011D                         	SHLB  _AH,#01h
00001439    B1031C                         	LDB   _AL,#03h
0000143C    191D1C                         	SHLB  _AL,_AH
0000143F    C70152011C                     	STB   _AL,h_fix
;002261                            avt_mode1 = (num_com >> 4) & 0x3;
00001444    B3010E001C                     	LDB   _AL,num_com
00001449    18041C                         	SHRB  _AL,#04h
0000144C    71031C                         	ANDB  _AL,#03h
0000144F    C701F1001C                     	STB   _AL,avt_mode1
;002263                            avt_mode2 = (num_com >> 6) & 0x1;
00001454    B3010E001C                     	LDB   _AL,num_com
00001459    18061C                         	SHRB  _AL,#06h
0000145C    71011C                         	ANDB  _AL,#01h
0000145F    C701F2001C                     	STB   _AL,avt_mode2
;002264                    }
                 ??_193_ELSE:
;002266                    goto sensor;
00001464    E75E12                         	LJMP  ??_sensor_main
;002267            }
                 ??_189_ELSE:
;002269            status_uart = SP_STAT0;
00001467    C701280200                     	STB   SP_STAT0,status_uart
;002273            if (( status_uart & 0x8) != 0)
0000146C    B30128021C                     	LDB   _AL,status_uart
00001471    71081C                         	ANDB  _AL,#08h
00001474    98001C                         	CMPB  _AL,0
00001477    DF06                           	JE    ??_194_ELSE
;002274            {
;002275                    SBUF_TX0 = num_com1;
00001479    B301160200                     	LDB   SBUF_TX0,num_com1
;002276                    __NOP();
0000147E    FD                             	NOP   
;002277            }
                 ??_194_ELSE:
;002281            if (num_com > 127)
0000147F    B3010E001C                     	LDB   _AL,num_com
00001484    99801C                         	CMPB  _AL,#80h
;002282            {
;002285                    goto sensor;
00001487    D303                           	JNC   ??_sensor_main_BYPASS_1487
00001489    E73912                         	LJMP  ??_sensor_main
  ??_sensor_main_BYPASS_1487:
;002286            }
       ??_command_start_main:
;002293            if (num_com > 24)
0000148C    B3010E001C                     	LDB   _AL,num_com
00001491    99191C                         	CMPB  _AL,#19h
00001494    D30A                           	JNC   ??_196_ELSE
;002294            {
;002295                    ta_vozd = 255;
00001496    B1FF1C                         	LDB   _AL,#0FFh
00001499    C7012D021C                     	STB   _AL,ta_vozd
;002297                    goto select_ta;
0000149E    22CF                           	SJMP  ??_select_ta_main
;002298            }
                 ??_196_ELSE:
        ??_internal_com_main:
;002306            if (num_com == 0)
000014A0    98001C                         	CMPB  _AL,0
000014A3    DF02                           	JE    ??_197_ELSE_BYPASS_14A3
000014A5    2080                           	SJMP  ??_197_ELSE
     ??_197_ELSE_BYPASS_14A3:
;002307            {
;002308                    avt_mode1 = 3;
000014A7    B1031C                         	LDB   _AL,#03h
000014AA    C701F1001C                     	STB   _AL,avt_mode1
;002310                    if (alg == 0)
000014AF    B301F0001C                     	LDB   _AL,alg
000014B4    98001C                         	CMPB  _AL,0
000014B7    D72A                           	JNE   ??_198_ELSE
;002311                    {
;002314                            vent_max = 26;
000014B9    B11A1C                         	LDB   _AL,#1Ah
000014BC    C70114001C                     	STB   _AL,vent_max
;002317                            vent_min = 20;
000014C1    B1141C                         	LDB   _AL,#14h
000014C4    C70115001C                     	STB   _AL,vent_min
;002320                            nagr_g = 18;
000014C9    B1121C                         	LDB   _AL,#12h
000014CC    C7010B001C                     	STB   _AL,nagr_g
;002323                            nagr_h = 19;
000014D1    B1131C                         	LDB   _AL,#13h
000014D4    C7010C001C                     	STB   _AL,nagr_h
;002326                            nagr_off = 24;
000014D9    B1181C                         	LDB   _AL,#18h
000014DC    C7010D001C                     	STB   _AL,nagr_off
;002327                    }
000014E1    2028                           	SJMP  ??_198_END
                 ??_198_ELSE:
;002329                    {
;002331                            vent_max = 27;
000014E3    B11B1C                         	LDB   _AL,#1Bh
000014E6    C70114001C                     	STB   _AL,vent_max
;002334                            vent_min = 19;
000014EB    B1131C                         	LDB   _AL,#13h
000014EE    C70115001C                     	STB   _AL,vent_min
;002337                            nagr_g = 17;
000014F3    B1111C                         	LDB   _AL,#11h
000014F6    C7010B001C                     	STB   _AL,nagr_g
;002340                            nagr_h = 18;
000014FB    B1121C                         	LDB   _AL,#12h
000014FE    C7010C001C                     	STB   _AL,nagr_h
;002343                            nagr_off = 25;
00001503    B1191C                         	LDB   _AL,#19h
00001506    C7010D001C                     	STB   _AL,nagr_off
;002344                    }
                  ??_198_END:
;002349                    GR26_27 = 0;
0000150B    C701EC0000                     	STB   00h,GR26_27
;002350                    GR20_19 = 0;
00001510    C701E80000                     	STB   00h,GR20_19
;002351                    GR19_18 = 0;
00001515    C701E70000                     	STB   00h,GR19_18
;002352                    GR18_17 = 0;
0000151A    C701E60000                     	STB   00h,GR18_17
;002353                    GR24_25 = 0;
0000151F    C701EB0000                     	STB   00h,GR24_25
;002355                    goto sensor;
00001524    E79E11                         	LJMP  ??_sensor_main
;002356            }
                 ??_197_ELSE:
;002360            if (num_com == 1)
00001527    99011C                         	CMPB  _AL,#01h
0000152A    D729                           	JNE   ??_199_ELSE
;002361            {
;002362                    avt_mode2 = 1;
0000152C    B1011C                         	LDB   _AL,#01h
0000152F    C701F2001C                     	STB   _AL,avt_mode2
;002366                    GR5_X = 0;
00001534    C701ED0000                     	STB   00h,GR5_X
;002367                    GR0_X = 0;
00001539    C701E00000                     	STB   00h,GR0_X
;002368                    GR10_X = 0;
0000153E    C701E20000                     	STB   00h,GR10_X
;002370                    GR5_Y = 0;
00001543    C701EE0000                     	STB   00h,GR5_Y
;002371                    GR0_Y = 0;
00001548    C701E10000                     	STB   00h,GR0_Y
;002372                    GR10_Y = 0;
0000154D    C701E30000                     	STB   00h,GR10_Y
;002374                    goto sensor;
00001552    E77011                         	LJMP  ??_sensor_main
;002375            }
                 ??_199_ELSE:
;002379            if (num_com == 2)
00001555    99021C                         	CMPB  _AL,#02h
00001558    D708                           	JNE   ??_200_ELSE
;002380            {
;002381                    avt_mode1 = 0;
0000155A    C701F10000                     	STB   00h,avt_mode1
;002383                    goto sensor;
0000155F    E76311                         	LJMP  ??_sensor_main
;002384            }
                 ??_200_ELSE:
;002388            if (num_com == 3)
00001562    99031C                         	CMPB  _AL,#03h
00001565    D725                           	JNE   ??_201_ELSE
;002389            {
;002390                    avt_mode1 = 1;
00001567    B1011C                         	LDB   _AL,#01h
0000156A    C701F1001C                     	STB   _AL,avt_mode1
;002393                    vent_max = 26;
0000156F    B11A1C                         	LDB   _AL,#1Ah
00001572    C70114001C                     	STB   _AL,vent_max
;002396                    vent_min = 20;
00001577    B1141C                         	LDB   _AL,#14h
0000157A    C70115001C                     	STB   _AL,vent_min
;002400                    GR26_27 = 0;
0000157F    C701EC0000                     	STB   00h,GR26_27
;002401                    GR20_19 = 0;
00001584    C701E80000                     	STB   00h,GR20_19
;002403                    goto sensor;
00001589    E73911                         	LJMP  ??_sensor_main
;002404            }
                 ??_201_ELSE:
;002409            if (num_com == 4)
0000158C    99041C                         	CMPB  _AL,#04h
0000158F    D708                           	JNE   ??_202_ELSE
;002410            {
;002411                    avt_mode2 = 0;
00001591    C701F20000                     	STB   00h,avt_mode2
;002413                    goto sensor;
00001596    E72C11                         	LJMP  ??_sensor_main
;002414            }
                 ??_202_ELSE:
;002419            if ((num_com >= 5) && (num_com <= 7))
00001599    99051C                         	CMPB  _AL,#05h
0000159C    D31F                           	JNC   ??_203_ELSE
0000159E    99081C                         	CMPB  _AL,#08h
000015A1    DB1A                           	JC    ??_203_ELSE
;002420            {
;002423                    if (mode_td == 0)
000015A3    B30113021C                     	LDB   _AL,mode_td
000015A8    98001C                         	CMPB  _AL,0
000015AB    D70D                           	JNE   ??_205_ELSE
;002424                    {
;002425                            td1 = num_com - 4;
000015AD    B3010E001C                     	LDB   _AL,num_com
000015B2    75FC1C                         	ADDB  _AL,#0FCh
000015B5    C70110001C                     	STB   _AL,td1
;002426                    }
                 ??_205_ELSE:
;002428                    goto sensor;
000015BA    E70811                         	LJMP  ??_sensor_main
;002429            }
                 ??_203_ELSE:
;002433            if ((num_com >= 8) && (num_com <= 10))
000015BD    99081C                         	CMPB  _AL,#08h
000015C0    D31F                           	JNC   ??_206_ELSE
000015C2    990B1C                         	CMPB  _AL,#0Bh
000015C5    DB1A                           	JC    ??_206_ELSE
;002434            {
;002437                    if (mode_td == 0)
000015C7    B30113021C                     	LDB   _AL,mode_td
000015CC    98001C                         	CMPB  _AL,0
000015CF    D70D                           	JNE   ??_208_ELSE
;002438                    {
;002439                            td2 = num_com - 7;
000015D1    B3010E001C                     	LDB   _AL,num_com
000015D6    75F91C                         	ADDB  _AL,#0F9h
000015D9    C70111001C                     	STB   _AL,td2
;002440                    }
                 ??_208_ELSE:
;002442                    goto sensor;
000015DE    E7E410                         	LJMP  ??_sensor_main
;002443            }
                 ??_206_ELSE:
;002447            if ((num_com >= 11) && (num_com <= 13))
000015E1    990B1C                         	CMPB  _AL,#0Bh
000015E4    D31F                           	JNC   ??_209_ELSE
000015E6    990E1C                         	CMPB  _AL,#0Eh
000015E9    DB1A                           	JC    ??_209_ELSE
;002448            {
;002451                    if (mode_td == 0)
000015EB    B30113021C                     	LDB   _AL,mode_td
000015F0    98001C                         	CMPB  _AL,0
000015F3    D70D                           	JNE   ??_211_ELSE
;002452                    {
;002453                            td3 =  num_com - 10;
000015F5    B3010E001C                     	LDB   _AL,num_com
000015FA    75F61C                         	ADDB  _AL,#0F6h
000015FD    C70112001C                     	STB   _AL,td3
;002454                    }
                 ??_211_ELSE:
;002456                    goto sensor;
00001602    E7C010                         	LJMP  ??_sensor_main
;002457            }
                 ??_209_ELSE:
;002461            if ((num_com >= 14) && (num_com <= 16))
00001605    990E1C                         	CMPB  _AL,#0Eh
00001608    D31F                           	JNC   ??_212_ELSE
0000160A    99111C                         	CMPB  _AL,#11h
0000160D    DB1A                           	JC    ??_212_ELSE
;002462            {
;002466                    if (mode_td == 0)
0000160F    B30113021C                     	LDB   _AL,mode_td
00001614    98001C                         	CMPB  _AL,0
00001617    D70D                           	JNE   ??_214_ELSE
;002467                    {
;002468                            td4 = num_com - 13;
00001619    B3010E001C                     	LDB   _AL,num_com
0000161E    75F31C                         	ADDB  _AL,#0F3h
00001621    C70113001C                     	STB   _AL,td4
;002469                    }
                 ??_214_ELSE:
;002471                    goto sensor;
00001626    E79C10                         	LJMP  ??_sensor_main
;002472            }
                 ??_212_ELSE:
;002476            if (num_com == 17)
00001629    99111C                         	CMPB  _AL,#11h
0000162C    D718                           	JNE   ??_215_ELSE
;002477            {
;002480                    if (mode_tm == 6)
0000162E    B3010A001C                     	LDB   _AL,mode_tm
00001633    99061C                         	CMPB  _AL,#06h
00001636    D70B                           	JNE   ??_216_ELSE
;002481                    {
;002482                            set_mode1();
00001638    EFD0E9                         	LCALL set_mode1
;002484                            frame_pt = 1;
0000163B    B1011C                         	LDB   _AL,#01h
0000163E    C70105001C                     	STB   _AL,frame_pt
;002485                    }
                 ??_216_ELSE:
;002487                    goto sensor;
00001643    E77F10                         	LJMP  ??_sensor_main
;002488            }
                 ??_215_ELSE:
;002493            if (num_com == 18)
00001646    99121C                         	CMPB  _AL,#12h
00001649    D706                           	JNE   ??_217_ELSE
;002494            {
;002497                    set_mode6();
0000164B    EF1AEA                         	LCALL set_mode6
;002499                    goto sensor;
0000164E    E77410                         	LJMP  ??_sensor_main
;002500            }
                 ??_217_ELSE:
;002504            if (num_com == 19)
00001651    99131C                         	CMPB  _AL,#13h
00001654    D708                           	JNE   ??_218_ELSE
;002505            {
;002508                    mode_td = 0;
00001656    C701130200                     	STB   00h,mode_td
;002510                    goto sensor;
0000165B    E76710                         	LJMP  ??_sensor_main
;002511            }
                 ??_218_ELSE:
;002515            if (num_com == 20)
0000165E    99141C                         	CMPB  _AL,#14h
00001661    D73F                           	JNE   ??_219_ELSE
;002516            {
;002519                    if (mode_td != 1)
00001663    B30113021C                     	LDB   _AL,mode_td
00001668    99011C                         	CMPB  _AL,#01h
0000166B    DF32                           	JE    ??_220_ELSE
;002520                    {
;002521                            mode_td = 1;
0000166D    B1011C                         	LDB   _AL,#01h
00001670    C70113021C                     	STB   _AL,mode_td
;002525                            for (i=0; i < 12; i++)
00001675    0124                           	CLR   i?main
00001677    2007                           	SJMP  ??_221_CHECK
                 ??_221_LOOP:
;002526                            {
;002527                                    bl_td[i] = 0;
00001679    C725F30000                     	STB   00h,bl_td[i?main]
;002528                            }
0000167E    0724                           	INC   i?main
                ??_221_CHECK:
00001680    890C0024                       	CMP   i?main,#000Ch
00001684    DEF3                           	JLT   ??_221_LOOP
;002530                            state_tdd1 = 0;
00001686    C701240200                     	STB   00h,state_tdd1
;002531                            state_tdd2 = 0;
0000168B    C701250200                     	STB   00h,state_tdd2
;002532                            state_tdd3 = 0;
00001690    C701260200                     	STB   00h,state_tdd3
;002533                            state_tdd4 = 0;
00001695    C701270200                     	STB   00h,state_tdd4
;002535                            privet = 0;
0000169A    C701200200                     	STB   00h,privet
;002536                    }
                 ??_220_ELSE:
;002538                    goto sensor;
0000169F    E72310                         	LJMP  ??_sensor_main
;002539            }
                 ??_219_ELSE:
;002543            if (num_com == 21)
000016A2    99151C                         	CMPB  _AL,#15h
000016A5    D751                           	JNE   ??_222_ELSE
;002544            {
;002547                    count_otk_g = 0;
000016A7    C7012A0100                     	STB   00h,count_otk_g
;002548                    count_otk_h = 0;
000016AC    C7012B0100                     	STB   00h,count_otk_h
;002550                    ogk_go = 0;
000016B1    C701180200                     	STB   00h,ogk_go
;002551                    ohk_go = 0;
000016B6    C701190200                     	STB   00h,ohk_go
;002555                    ish_g = 1;
000016BB    B1011C                         	LDB   _AL,#01h
000016BE    C70107001C                     	STB   _AL,ish_g
;002556                    ish_h = 1;
000016C3    C70108001C                     	STB   _AL,ish_h
;002558                    g1_go = 0;
000016C8    C7014B0100                     	STB   00h,g1_go
;002559                    g2_go = 0;
000016CD    C7014C0100                     	STB   00h,g2_go
;002560                    h1_go = 0;
000016D2    C7014F0100                     	STB   00h,h1_go
;002561                    h2_go = 0;
000016D7    C701500100                     	STB   00h,h2_go
;002563                    GR26_27 = 0;
000016DC    C701EC0000                     	STB   00h,GR26_27
;002564                    GR20_19 = 0;
000016E1    C701E80000                     	STB   00h,GR20_19
;002565                    GR19_18 = 0;
000016E6    C701E70000                     	STB   00h,GR19_18
;002566                    GR18_17 = 0;
000016EB    C701E60000                     	STB   00h,GR18_17
;002567                    GR24_25 = 0;
000016F0    C701EB0000                     	STB   00h,GR24_25
;002569                    goto sensor;
000016F5    E7CD0F                         	LJMP  ??_sensor_main
;002570            }
                 ??_222_ELSE:
;002574            if (num_com == 22)
000016F8    99161C                         	CMPB  _AL,#16h
000016FB    D71F                           	JNE   ??_223_ELSE
;002575            {
;002578                    if (mode_tm != 6)
000016FD    B3010A001C                     	LDB   _AL,mode_tm
00001702    99061C                         	CMPB  _AL,#06h
00001705    DF12                           	JE    ??_224_ELSE
;002579                    {
;002582                            if (mode_tm != 5)
00001707    99051C                         	CMPB  _AL,#05h
0000170A    DF05                           	JE    ??_225_ELSE
;002583                            {
;002584                                    last_mode_tm = mode_tm;
0000170C    C70109001C                     	STB   _AL,last_mode_tm
;002585                            }
                 ??_225_ELSE:
;002587                            mode_tm = 5;
00001711    B1051C                         	LDB   _AL,#05h
00001714    C7010A001C                     	STB   _AL,mode_tm
;002588                    }
                 ??_224_ELSE:
;002590                    goto sensor;
00001719    E7A90F                         	LJMP  ??_sensor_main
;002591            }
                 ??_223_ELSE:
;002595            if (num_com == 23)
0000171C    99171C                         	CMPB  _AL,#17h
0000171F    D74E                           	JNE   ??_226_ELSE
;002596            {
;002599                    if (mode_tm != 6)
00001721    B3010A001C                     	LDB   _AL,mode_tm
00001726    99061C                         	CMPB  _AL,#06h
00001729    DF41                           	JE    ??_227_ELSE
;002600                    {
;002602                            code_av = 0;
0000172B    C701250100                     	STB   00h,code_av
;002606                            if (frame_tm == 7)
00001730    B30106001C                     	LDB   _AL,frame_tm
00001735    99071C                         	CMPB  _AL,#07h
00001738    D71B                           	JNE   ??_228_ELSE
;002607                            {
;002608                                    frame_tm = save_frame + 1;
0000173A    B3010F001C                     	LDB   _AL,save_frame
0000173F    171C                           	INCB  _AL
00001741    C70106001C                     	STB   _AL,frame_tm
;002610                                    if (frame_tm > 6)
00001746    99071C                         	CMPB  _AL,#07h
00001749    D31E                           	JNC   ??_228_END
;002611                                    {
;002612                                            frame_tm = 1;
0000174B    B1011C                         	LDB   _AL,#01h
0000174E    C70106001C                     	STB   _AL,frame_tm
;002613                                    }
;002614                            }
00001753    2014                           	SJMP  ??_228_END
                 ??_228_ELSE:
;002616                            {
;002619                                    frame_tm = frame_tm + 1;
00001755    171C                           	INCB  _AL
00001757    C70106001C                     	STB   _AL,frame_tm
;002621                                    if (frame_tm > 6)
0000175C    99071C                         	CMPB  _AL,#07h
0000175F    D308                           	JNC   ??_230_ELSE
;002622                                    {
;002623                                            frame_tm = 1;
00001761    B1011C                         	LDB   _AL,#01h
00001764    C70106001C                     	STB   _AL,frame_tm
;002624                                    }
                 ??_230_ELSE:
;002625                            }
                  ??_228_END:
;002629                            set_mode1();
00001769    EF9FE8                         	LCALL set_mode1
;002630                    }
                 ??_227_ELSE:
;002632                    goto sensor;
0000176C    E7560F                         	LJMP  ??_sensor_main
;002633            }
                 ??_226_ELSE:
           ??_select_ta_main:
;002640            if ((count_otk_g < 4) && (count_otk_h < 4))
0000176F    B3012A011C                     	LDB   _AL,count_otk_g
00001774    99041C                         	CMPB  _AL,#04h
00001777    D302                           	JNC   ??_231_ELSE_BYPASS_1777
00001779    2093                           	SJMP  ??_231_ELSE
     ??_231_ELSE_BYPASS_1777:
0000177B    B3012B011C                     	LDB   _AL,count_otk_h
00001780    99041C                         	CMPB  _AL,#04h
00001783    D302                           	JNC   ??_231_ELSE_BYPASS_1783
00001785    2087                           	SJMP  ??_231_ELSE
     ??_231_ELSE_BYPASS_1783:
;002641            {
;002643                    if ((num_com >=24) && (num_com <=28) && (num_com!= 26))
00001787    B3010E001C                     	LDB   _AL,num_com
0000178C    99181C                         	CMPB  _AL,#18h
0000178F    D33C                           	JNC   ??_233_ELSE
00001791    991D1C                         	CMPB  _AL,#1Dh
00001794    DB37                           	JC    ??_233_ELSE
00001796    991A1C                         	CMPB  _AL,#1Ah
00001799    DF32                           	JE    ??_233_ELSE
;002644                    {
;002645                            if ((avt_mode1 != 0) && (t_td[2+td2] >= vent_max))
0000179B    B301F1001C                     	LDB   _AL,avt_mode1
000017A0    98001C                         	CMPB  _AL,0
000017A3    DF28                           	JE    ??_236_ELSE
000017A5    B30114001C                     	LDB   _AL,vent_max
000017AA    EF53E8                         	LCALL ??FPCONV8U
000017AD    A01C20                         	LD    _CX,_AX
000017B0    A01E22                         	LD    _DX,_BX
000017B3    AF01110024                     	LDBZE _EX,td2
000017B8    090224                         	SHL   _EX,#02h
000017BB    A32518001C                     	LD    _AX,(t_td+8)[_EX]
000017C0    A3251A001E                     	LD    _BX,(t_td+10)[_EX]
000017C5    EF38E8                         	LCALL ??FPCMP
;002646                            {
;002647                                    goto sensor;
000017C8    DE03                           	JLT   ??_sensor_main_BYPASS_17C8
000017CA    E7F80E                         	LJMP  ??_sensor_main
  ??_sensor_main_BYPASS_17C8:
;002648                            }
                 ??_236_ELSE:
;002649                    }
                 ??_233_ELSE:
;002651                    if ((num_com >=29) && (num_com <=32))
000017CD    B3010E001C                     	LDB   _AL,num_com
000017D2    991D1C                         	CMPB  _AL,#1Dh
000017D5    D337                           	JNC   ??_238_ELSE
000017D7    99211C                         	CMPB  _AL,#21h
000017DA    DB32                           	JC    ??_238_ELSE
;002652                    {
;002653                            if ((avt_mode1 != 0) && (t_td[td1-1] <= vent_min))
000017DC    B301F1001C                     	LDB   _AL,avt_mode1
000017E1    98001C                         	CMPB  _AL,0
000017E4    DF28                           	JE    ??_240_ELSE
000017E6    B30115001C                     	LDB   _AL,vent_min
000017EB    EF12E8                         	LCALL ??FPCONV8U
000017EE    A01C20                         	LD    _CX,_AX
000017F1    A01E22                         	LD    _DX,_BX
000017F4    AF01100024                     	LDBZE _EX,td1
000017F9    090224                         	SHL   _EX,#02h
000017FC    A3250C001C                     	LD    _AX,avt_mode1-00E5h[_EX]
00001801    A3250E001E                     	LD    _BX,avt_mode1-00E3h[_EX]
00001806    EFF7E7                         	LCALL ??FPCMP
;002654                            {
;002655                                    goto sensor;
00001809    D203                           	JGT   ??_sensor_main_BYPASS_1809
0000180B    E7B70E                         	LJMP  ??_sensor_main
  ??_sensor_main_BYPASS_1809:
;002656                            }
                 ??_240_ELSE:
;002657                    }
                 ??_238_ELSE:
;002660            }
                 ??_231_ELSE:
;002664            if (num_com == 24)
0000180E    B3010E001C                     	LDB   _AL,num_com
00001813    99181C                         	CMPB  _AL,#18h
00001816    D766                           	JNE   ??_242_ELSE
;002665            {
;002668                    vent_gh = 0;
00001818    C7014B0200                     	STB   00h,vent_gh
;002672                    ish_g = 0;
0000181D    C701070000                     	STB   00h,ish_g
;002676                    if ((tm_3 & 0x1) != 0)
00001822    B30138021C                     	LDB   _AL,tm_3
00001827    71011C                         	ANDB  _AL,#01h
0000182A    98001C                         	CMPB  _AL,0
;002677                    {
;002678                            goto sensor;
0000182D    DF03                           	JE    ??_sensor_main_BYPASS_182D
0000182F    E7930E                         	LJMP  ??_sensor_main
  ??_sensor_main_BYPASS_182D:
;002679                    }
;002683                    if ((tm_data_5 & 0xC) != 0)
00001832    B30144021C                     	LDB   _AL,tm_data_5
00001837    710C1C                         	ANDB  _AL,#0Ch
0000183A    98001C                         	CMPB  _AL,0
0000183D    DF06                           	JE    ??_244_ELSE
;002684                    {
;002685                            off_ta(18);
0000183F    B1121C                         	LDB   _AL,#12h
00001842    EFBBE7                         	LCALL off_ta
;002686                    }
                 ??_244_ELSE:
;002690                    if ((tm_data_5 & 0x30) != 0)
00001845    B30144021C                     	LDB   _AL,tm_data_5
0000184A    71301C                         	ANDB  _AL,#30h
0000184D    98001C                         	CMPB  _AL,0
00001850    DF06                           	JE    ??_245_ELSE
;002691                    {
;002692                            off_ta(19);
00001852    B1131C                         	LDB   _AL,#13h
00001855    EFA8E7                         	LCALL off_ta
;002693                    }
                 ??_245_ELSE:
;002697                    if ((tm_data_5 & 0xC0) != 0)
00001858    B30144021C                     	LDB   _AL,tm_data_5
0000185D    71C01C                         	ANDB  _AL,#0C0h
00001860    98001C                         	CMPB  _AL,0
00001863    DF06                           	JE    ??_246_ELSE
;002698                    {
;002699                            off_ta(20);
00001865    B1141C                         	LDB   _AL,#14h
00001868    EF95E7                         	LCALL off_ta
;002700                    }
                 ??_246_ELSE:
;002703                    g_com = 0x3;
0000186B    B1031C                         	LDB   _AL,#03h
0000186E    C7014D011C                     	STB   _AL,g_com
;002705                    command_vent = 1;
00001873    B1011C                         	LDB   _AL,#01h
00001876    C70127011C                     	STB   _AL,command_vent
;002707                    goto otkl_ta_gh;
0000187B    E7DC0D                         	LJMP  ??_otkl_ta_gh_main
;002709            }
                 ??_242_ELSE:
;002713            if (num_com == 25)
0000187E    99191C                         	CMPB  _AL,#19h
00001881    D766                           	JNE   ??_247_ELSE
;002714            {
;002717                    vent_gh = 0;
00001883    C7014B0200                     	STB   00h,vent_gh
;002721                    ish_g = 0;
00001888    C701070000                     	STB   00h,ish_g
;002725                    if ((tm_3 & 0x2) != 0)
0000188D    B30138021C                     	LDB   _AL,tm_3
00001892    71021C                         	ANDB  _AL,#02h
00001895    98001C                         	CMPB  _AL,0
;002726                    {
;002727                            goto sensor;
00001898    DF03                           	JE    ??_sensor_main_BYPASS_1898
0000189A    E7280E                         	LJMP  ??_sensor_main
  ??_sensor_main_BYPASS_1898:
;002728                    }
;002732                    if ((tm_data_5 & 0x3) != 0)
0000189D    B30144021C                     	LDB   _AL,tm_data_5
000018A2    71031C                         	ANDB  _AL,#03h
000018A5    98001C                         	CMPB  _AL,0
000018A8    DF06                           	JE    ??_249_ELSE
;002733                    {
;002734                            off_ta(17);
000018AA    B1111C                         	LDB   _AL,#11h
000018AD    EF50E7                         	LCALL off_ta
;002735                    }
                 ??_249_ELSE:
;002739                    if ((tm_data_5 & 0x30) != 0)
000018B0    B30144021C                     	LDB   _AL,tm_data_5
000018B5    71301C                         	ANDB  _AL,#30h
000018B8    98001C                         	CMPB  _AL,0
000018BB    DF06                           	JE    ??_250_ELSE
;002740                    {
;002741                            off_ta(19);
000018BD    B1131C                         	LDB   _AL,#13h
000018C0    EF3DE7                         	LCALL off_ta
;002742                    }
                 ??_250_ELSE:
;002746                    if ((tm_data_5 & 0xC0) != 0)
000018C3    B30144021C                     	LDB   _AL,tm_data_5
000018C8    71C01C                         	ANDB  _AL,#0C0h
000018CB    98001C                         	CMPB  _AL,0
000018CE    DF06                           	JE    ??_251_ELSE
;002747                    {
;002748                            off_ta(20);
000018D0    B1141C                         	LDB   _AL,#14h
000018D3    EF2AE7                         	LCALL off_ta
;002749                    }
                 ??_251_ELSE:
;002751                    command_vent = 1;
000018D6    B1011C                         	LDB   _AL,#01h
000018D9    C70127011C                     	STB   _AL,command_vent
;002753                    g_com = 0xC;
000018DE    B10C1C                         	LDB   _AL,#0Ch
000018E1    C7014D011C                     	STB   _AL,g_com
;002755                    goto otkl_ta_gh;
000018E6    E7710D                         	LJMP  ??_otkl_ta_gh_main
;002756            }
                 ??_247_ELSE:
;002760            if (num_com == 26)
000018E9    991A1C                         	CMPB  _AL,#1Ah
000018EC    D72E                           	JNE   ??_252_ELSE
;002761            {
;002763                    if ((tm_data_5 & 0xC0) != 0)
000018EE    B30144021C                     	LDB   _AL,tm_data_5
000018F3    71C01C                         	ANDB  _AL,#0C0h
000018F6    98001C                         	CMPB  _AL,0
000018F9    DF1E                           	JE    ??_253_ELSE
;002764                    {
;002765                            off_ta(20);
000018FB    B1141C                         	LDB   _AL,#14h
000018FE    EFFFE6                         	LCALL off_ta
;002767                            vent_gh = 2;
00001901    B1021C                         	LDB   _AL,#02h
00001904    C7014B021C                     	STB   _AL,vent_gh
;002769                            command_vent = 1;
00001909    B1011C                         	LDB   _AL,#01h
0000190C    C70127011C                     	STB   _AL,command_vent
;002771                            g_com = 0x0;
00001911    C7014D0100                     	STB   00h,g_com
;002773                            goto otkl_ta_gh;
00001916    E7410D                         	LJMP  ??_otkl_ta_gh_main
;002774                    }
                 ??_253_ELSE:
;002776                    goto sensor;
00001919    E7A90D                         	LJMP  ??_sensor_main
;002777            }
                 ??_252_ELSE:
;002782            if (num_com == 27)
0000191C    991B1C                         	CMPB  _AL,#1Bh
0000191F    D766                           	JNE   ??_254_ELSE
;002783            {
;002786                    vent_gh = 0;
00001921    C7014B0200                     	STB   00h,vent_gh
;002790                    ish_g = 0;
00001926    C701070000                     	STB   00h,ish_g
;002793                    if ((tm_3 & 0x4) != 0)
0000192B    B30138021C                     	LDB   _AL,tm_3
00001930    71041C                         	ANDB  _AL,#04h
00001933    98001C                         	CMPB  _AL,0
;002794                    {
;002795                            goto sensor;
00001936    DF03                           	JE    ??_sensor_main_BYPASS_1936
00001938    E78A0D                         	LJMP  ??_sensor_main
  ??_sensor_main_BYPASS_1936:
;002796                    }
;002800                    if ((tm_data_5 & 0x3) != 0)
0000193B    B30144021C                     	LDB   _AL,tm_data_5
00001940    71031C                         	ANDB  _AL,#03h
00001943    98001C                         	CMPB  _AL,0
00001946    DF06                           	JE    ??_256_ELSE
;002801                    {
;002802                            off_ta(17);
00001948    B1111C                         	LDB   _AL,#11h
0000194B    EFB2E6                         	LCALL off_ta
;002803                    }
                 ??_256_ELSE:
;002807                    if ((tm_data_5 & 0xC) != 0)
0000194E    B30144021C                     	LDB   _AL,tm_data_5
00001953    710C1C                         	ANDB  _AL,#0Ch
00001956    98001C                         	CMPB  _AL,0
00001959    DF06                           	JE    ??_257_ELSE
;002808                    {
;002809                            off_ta(18);
0000195B    B1121C                         	LDB   _AL,#12h
0000195E    EF9FE6                         	LCALL off_ta
;002810                    }
                 ??_257_ELSE:
;002814                    if ((tm_data_5 & 0xC0) != 0)
00001961    B30144021C                     	LDB   _AL,tm_data_5
00001966    71C01C                         	ANDB  _AL,#0C0h
00001969    98001C                         	CMPB  _AL,0
0000196C    DF06                           	JE    ??_258_ELSE
;002815                    {
;002816                            off_ta(20);
0000196E    B1141C                         	LDB   _AL,#14h
00001971    EF8CE6                         	LCALL off_ta
;002817                    }
                 ??_258_ELSE:
;002819                    command_vent = 1;
00001974    B1011C                         	LDB   _AL,#01h
00001977    C70127011C                     	STB   _AL,command_vent
;002821                    g_com = 0x30;
0000197C    B1301C                         	LDB   _AL,#30h
0000197F    C7014D011C                     	STB   _AL,g_com
;002823                    goto otkl_ta_gh;
00001984    E7D30C                         	LJMP  ??_otkl_ta_gh_main
;002824            }
                 ??_254_ELSE:
;002829            if (num_com == 28)
00001987    991C1C                         	CMPB  _AL,#1Ch
0000198A    D766                           	JNE   ??_259_ELSE
;002830            {
;002834                    vent_gh = 0;
0000198C    C7014B0200                     	STB   00h,vent_gh
;002838                    ish_g = 0;
00001991    C701070000                     	STB   00h,ish_g
;002840                    if ((tm_3 & 0x8) != 0)
00001996    B30138021C                     	LDB   _AL,tm_3
0000199B    71081C                         	ANDB  _AL,#08h
0000199E    98001C                         	CMPB  _AL,0
;002841                    {
;002842                            goto sensor;
000019A1    DF03                           	JE    ??_sensor_main_BYPASS_19A1
000019A3    E71F0D                         	LJMP  ??_sensor_main
  ??_sensor_main_BYPASS_19A1:
;002843                    }
;002847                    if ((tm_data_5 & 0x3) != 0)
000019A6    B30144021C                     	LDB   _AL,tm_data_5
000019AB    71031C                         	ANDB  _AL,#03h
000019AE    98001C                         	CMPB  _AL,0
000019B1    DF06                           	JE    ??_261_ELSE
;002848                    {
;002849                            off_ta(17);
000019B3    B1111C                         	LDB   _AL,#11h
000019B6    EF47E6                         	LCALL off_ta
;002851                    }
                 ??_261_ELSE:
;002856                    if ((tm_data_5 & 0xC) != 0)
000019B9    B30144021C                     	LDB   _AL,tm_data_5
000019BE    710C1C                         	ANDB  _AL,#0Ch
000019C1    98001C                         	CMPB  _AL,0
000019C4    DF06                           	JE    ??_262_ELSE
;002857                    {
;002858                            off_ta(18);
000019C6    B1121C                         	LDB   _AL,#12h
000019C9    EF34E6                         	LCALL off_ta
;002859                    }
                 ??_262_ELSE:
;002864                    if ((tm_data_5 & 0x30) != 0)
000019CC    B30144021C                     	LDB   _AL,tm_data_5
000019D1    71301C                         	ANDB  _AL,#30h
000019D4    98001C                         	CMPB  _AL,0
000019D7    DF06                           	JE    ??_263_ELSE
;002865                    {
;002866                            off_ta(19);
000019D9    B1131C                         	LDB   _AL,#13h
000019DC    EF21E6                         	LCALL off_ta
;002867                    }
                 ??_263_ELSE:
;002869                    command_vent = 1;
000019DF    B1011C                         	LDB   _AL,#01h
000019E2    C70127011C                     	STB   _AL,command_vent
;002871                    g_com = 0xC0;
000019E7    B1C01C                         	LDB   _AL,#0C0h
000019EA    C7014D011C                     	STB   _AL,g_com
;002873                    goto otkl_ta_gh;
000019EF    E7680C                         	LJMP  ??_otkl_ta_gh_main
;002875            }
                 ??_259_ELSE:
;002880            if (num_com == 29)
000019F2    991D1C                         	CMPB  _AL,#1Dh
000019F5    D769                           	JNE   ??_264_ELSE
;002881            {
;002884                    vent_gh = 1;
000019F7    B1011C                         	LDB   _AL,#01h
000019FA    C7014B021C                     	STB   _AL,vent_gh
;002888                    ish_h = 0;
000019FF    C701080000                     	STB   00h,ish_h
;002890                    if ((tm_3 & 0x10) != 0)
00001A04    B30138021C                     	LDB   _AL,tm_3
00001A09    71101C                         	ANDB  _AL,#10h
00001A0C    98001C                         	CMPB  _AL,0
;002891                    {
;002892                            goto sensor;
00001A0F    DF03                           	JE    ??_sensor_main_BYPASS_1A0F
00001A11    E7B10C                         	LJMP  ??_sensor_main
  ??_sensor_main_BYPASS_1A0F:
;002893                    }
;002897                    if ((tm_data_6 & 0xC) != 0)
00001A14    B30145021C                     	LDB   _AL,tm_data_6
00001A19    710C1C                         	ANDB  _AL,#0Ch
00001A1C    98001C                         	CMPB  _AL,0
00001A1F    DF06                           	JE    ??_266_ELSE
;002898                    {
;002899                            off_ta(22);
00001A21    B1161C                         	LDB   _AL,#16h
00001A24    EFD9E5                         	LCALL off_ta
;002900                    }
                 ??_266_ELSE:
;002904                    if ((tm_data_6 & 0x30) != 0)
00001A27    B30145021C                     	LDB   _AL,tm_data_6
00001A2C    71301C                         	ANDB  _AL,#30h
00001A2F    98001C                         	CMPB  _AL,0
00001A32    DF06                           	JE    ??_267_ELSE
;002905                    {
;002906                            off_ta(23);
00001A34    B1171C                         	LDB   _AL,#17h
00001A37    EFC6E5                         	LCALL off_ta
;002907                    }
                 ??_267_ELSE:
;002911                    if ((tm_data_6 & 0xC0) != 0)
00001A3A    B30145021C                     	LDB   _AL,tm_data_6
00001A3F    71C01C                         	ANDB  _AL,#0C0h
00001A42    98001C                         	CMPB  _AL,0
00001A45    DF06                           	JE    ??_268_ELSE
;002912                    {
;002913                            off_ta(24);
00001A47    B1181C                         	LDB   _AL,#18h
00001A4A    EFB3E5                         	LCALL off_ta
;002914                    }
                 ??_268_ELSE:
;002916                    command_vent = 1;
00001A4D    B1011C                         	LDB   _AL,#01h
00001A50    C70127011C                     	STB   _AL,command_vent
;002918                    h_com = 0x3;
00001A55    B1031C                         	LDB   _AL,#03h
00001A58    C70151011C                     	STB   _AL,h_com
;002920                    goto otkl_ta_gh;
00001A5D    E7FA0B                         	LJMP  ??_otkl_ta_gh_main
;002921            }
                 ??_264_ELSE:
;002925            if (num_com == 30)
00001A60    991E1C                         	CMPB  _AL,#1Eh
00001A63    D769                           	JNE   ??_269_ELSE
;002926            {
;002929                    vent_gh = 1;
00001A65    B1011C                         	LDB   _AL,#01h
00001A68    C7014B021C                     	STB   _AL,vent_gh
;002933                    ish_h = 0;
00001A6D    C701080000                     	STB   00h,ish_h
;002935                    if ((tm_3 & 0x20) != 0)
00001A72    B30138021C                     	LDB   _AL,tm_3
00001A77    71201C                         	ANDB  _AL,#20h
00001A7A    98001C                         	CMPB  _AL,0
;002936                    {
;002937                            goto sensor;
00001A7D    DF03                           	JE    ??_sensor_main_BYPASS_1A7D
00001A7F    E7430C                         	LJMP  ??_sensor_main
  ??_sensor_main_BYPASS_1A7D:
;002938                    }
;002942                    if ((tm_data_6 & 0x3) != 0)
00001A82    B30145021C                     	LDB   _AL,tm_data_6
00001A87    71031C                         	ANDB  _AL,#03h
00001A8A    98001C                         	CMPB  _AL,0
00001A8D    DF06                           	JE    ??_271_ELSE
;002943                    {
;002944                            off_ta(21);
00001A8F    B1151C                         	LDB   _AL,#15h
00001A92    EF6BE5                         	LCALL off_ta
;002945                    }
                 ??_271_ELSE:
;002949                    if ((tm_data_6 & 0x30) != 0)
00001A95    B30145021C                     	LDB   _AL,tm_data_6
00001A9A    71301C                         	ANDB  _AL,#30h
00001A9D    98001C                         	CMPB  _AL,0
00001AA0    DF06                           	JE    ??_272_ELSE
;002950                    {
;002951                            off_ta(23);
00001AA2    B1171C                         	LDB   _AL,#17h
00001AA5    EF58E5                         	LCALL off_ta
;002952                    }
                 ??_272_ELSE:
;002956                    if ((tm_data_6 & 0xC0) != 0)
00001AA8    B30145021C                     	LDB   _AL,tm_data_6
00001AAD    71C01C                         	ANDB  _AL,#0C0h
00001AB0    98001C                         	CMPB  _AL,0
00001AB3    DF06                           	JE    ??_273_ELSE
;002957                    {
;002958                            off_ta(24);
00001AB5    B1181C                         	LDB   _AL,#18h
00001AB8    EF45E5                         	LCALL off_ta
;002959                    }
                 ??_273_ELSE:
;002961                    command_vent = 1;
00001ABB    B1011C                         	LDB   _AL,#01h
00001ABE    C70127011C                     	STB   _AL,command_vent
;002963                    h_com = 0xC;
00001AC3    B10C1C                         	LDB   _AL,#0Ch
00001AC6    C70151011C                     	STB   _AL,h_com
;002965                    goto otkl_ta_gh;
00001ACB    E78C0B                         	LJMP  ??_otkl_ta_gh_main
;002966            }
                 ??_269_ELSE:
;002970            if (num_com == 31)
00001ACE    991F1C                         	CMPB  _AL,#1Fh
00001AD1    D769                           	JNE   ??_274_ELSE
;002971            {
;002974                    vent_gh = 1;
00001AD3    B1011C                         	LDB   _AL,#01h
00001AD6    C7014B021C                     	STB   _AL,vent_gh
;002978                    ish_h = 0;
00001ADB    C701080000                     	STB   00h,ish_h
;002980                    if ((tm_3 & 0x40) != 0)
00001AE0    B30138021C                     	LDB   _AL,tm_3
00001AE5    71401C                         	ANDB  _AL,#40h
00001AE8    98001C                         	CMPB  _AL,0
;002981                    {
;002982                            goto sensor;
00001AEB    DF03                           	JE    ??_sensor_main_BYPASS_1AEB
00001AED    E7D50B                         	LJMP  ??_sensor_main
  ??_sensor_main_BYPASS_1AEB:
;002983                    }
;002987                    if ((tm_data_6 & 0x3) != 0)
00001AF0    B30145021C                     	LDB   _AL,tm_data_6
00001AF5    71031C                         	ANDB  _AL,#03h
00001AF8    98001C                         	CMPB  _AL,0
00001AFB    DF06                           	JE    ??_276_ELSE
;002988                    {
;002989                            off_ta(21);
00001AFD    B1151C                         	LDB   _AL,#15h
00001B00    EFFDE4                         	LCALL off_ta
;002990                    }
                 ??_276_ELSE:
;002994                    if ((tm_data_6 & 0xC) != 0)
00001B03    B30145021C                     	LDB   _AL,tm_data_6
00001B08    710C1C                         	ANDB  _AL,#0Ch
00001B0B    98001C                         	CMPB  _AL,0
00001B0E    DF06                           	JE    ??_277_ELSE
;002995                    {
;002996                            off_ta(22);
00001B10    B1161C                         	LDB   _AL,#16h
00001B13    EFEAE4                         	LCALL off_ta
;002997                    }
                 ??_277_ELSE:
;003002                    if ((tm_data_6 & 0xC0) != 0)
00001B16    B30145021C                     	LDB   _AL,tm_data_6
00001B1B    71C01C                         	ANDB  _AL,#0C0h
00001B1E    98001C                         	CMPB  _AL,0
00001B21    DF06                           	JE    ??_278_ELSE
;003003                    {
;003004                            off_ta(24);
00001B23    B1181C                         	LDB   _AL,#18h
00001B26    EFD7E4                         	LCALL off_ta
;003005                    }
                 ??_278_ELSE:
;003007                    command_vent = 1;
00001B29    B1011C                         	LDB   _AL,#01h
00001B2C    C70127011C                     	STB   _AL,command_vent
;003009                    h_com = 0x30;
00001B31    B1301C                         	LDB   _AL,#30h
00001B34    C70151011C                     	STB   _AL,h_com
;003011                    goto otkl_ta_gh;
00001B39    E71E0B                         	LJMP  ??_otkl_ta_gh_main
;003012            }
                 ??_274_ELSE:
;003016            if (num_com == 32)
00001B3C    99201C                         	CMPB  _AL,#20h
00001B3F    D769                           	JNE   ??_279_ELSE
;003017            {
;003020                    vent_gh = 1;
00001B41    B1011C                         	LDB   _AL,#01h
00001B44    C7014B021C                     	STB   _AL,vent_gh
;003024                    ish_h = 0;
00001B49    C701080000                     	STB   00h,ish_h
;003026                    if ((tm_3 & 0x80) != 0)
00001B4E    B30138021C                     	LDB   _AL,tm_3
00001B53    71801C                         	ANDB  _AL,#80h
00001B56    98001C                         	CMPB  _AL,0
;003027                    {
;003028                            goto sensor;
00001B59    DF03                           	JE    ??_sensor_main_BYPASS_1B59
00001B5B    E7670B                         	LJMP  ??_sensor_main
  ??_sensor_main_BYPASS_1B59:
;003029                    }
;003033                    if ((tm_data_6 & 0x3) != 0)
00001B5E    B30145021C                     	LDB   _AL,tm_data_6
00001B63    71031C                         	ANDB  _AL,#03h
00001B66    98001C                         	CMPB  _AL,0
00001B69    DF06                           	JE    ??_281_ELSE
;003034                    {
;003035                            off_ta(21);
00001B6B    B1151C                         	LDB   _AL,#15h
00001B6E    EF8FE4                         	LCALL off_ta
;003036                    }
                 ??_281_ELSE:
;003040                    if ((tm_data_6 & 0xC) != 0)
00001B71    B30145021C                     	LDB   _AL,tm_data_6
00001B76    710C1C                         	ANDB  _AL,#0Ch
00001B79    98001C                         	CMPB  _AL,0
00001B7C    DF06                           	JE    ??_282_ELSE
;003041                    {
;003042                            off_ta(22);
00001B7E    B1161C                         	LDB   _AL,#16h
00001B81    EF7CE4                         	LCALL off_ta
;003043                    }
                 ??_282_ELSE:
;003047                    if ((tm_data_6 & 0x30) != 0)
00001B84    B30145021C                     	LDB   _AL,tm_data_6
00001B89    71301C                         	ANDB  _AL,#30h
00001B8C    98001C                         	CMPB  _AL,0
00001B8F    DF06                           	JE    ??_283_ELSE
;003048                    {
;003049                            off_ta(23);
00001B91    B1171C                         	LDB   _AL,#17h
00001B94    EF69E4                         	LCALL off_ta
;003050                    }
                 ??_283_ELSE:
;003052                    command_vent = 1;
00001B97    B1011C                         	LDB   _AL,#01h
00001B9A    C70127011C                     	STB   _AL,command_vent
;003054                    h_com = 0xC0;
00001B9F    B1C01C                         	LDB   _AL,#0C0h
00001BA2    C70151011C                     	STB   _AL,h_com
;003056                    goto otkl_ta_gh;
00001BA7    E7B00A                         	LJMP  ??_otkl_ta_gh_main
;003057            }
                 ??_279_ELSE:
          ??_com_num_33_main:
;003070            if (num_com == 33)
00001BAA    99211C                         	CMPB  _AL,#21h
00001BAD    D739                           	JNE   ??_284_ELSE
;003071            {
;003072                    if ((tm_2 & 0x20) != 0)
00001BAF    B30135021C                     	LDB   _AL,tm_2
00001BB4    71201C                         	ANDB  _AL,#20h
00001BB7    98001C                         	CMPB  _AL,0
00001BBA    DF16                           	JE    ??_285_ELSE
;003073                    {
;003074                            if (off_ta(14) != 0)
00001BBC    B10E1C                         	LDB   _AL,#0Eh
00001BBF    EF3EE4                         	LCALL off_ta
00001BC2    88001C                         	CMP   _AX,0
00001BC5    DF0B                           	JE    ??_286_ELSE
;003075                            {
;003076                                    code_av = 46;
00001BC7    B12E1C                         	LDB   _AL,#2Eh
00001BCA    C70125011C                     	STB   _AL,code_av
;003078                                    goto output_tm;
00001BCF    E7271C                         	LJMP  ??_output_tm_main
;003079                            }
                 ??_286_ELSE:
;003080                    }
                 ??_285_ELSE:
;003082                    if (on_ta(13) != 0)
00001BD2    B10D1C                         	LDB   _AL,#0Dh
00001BD5    EF28E4                         	LCALL on_ta
00001BD8    88001C                         	CMP   _AX,0
00001BDB    DF08                           	JE    ??_287_ELSE
;003083                    {
;003084                            code_av = 13;
00001BDD    B10D1C                         	LDB   _AL,#0Dh
00001BE0    C70125011C                     	STB   _AL,code_av
;003085                    }
                 ??_287_ELSE:
;003087                    goto output_tm;
00001BE5    E7111C                         	LJMP  ??_output_tm_main
;003088            }
                 ??_284_ELSE:
;003092            if (num_com == 34)
00001BE8    99221C                         	CMPB  _AL,#22h
00001BEB    D739                           	JNE   ??_288_ELSE
;003093            {
;003094                    if ((tm_2 & 0x10) != 0)
00001BED    B30135021C                     	LDB   _AL,tm_2
00001BF2    71101C                         	ANDB  _AL,#10h
00001BF5    98001C                         	CMPB  _AL,0
00001BF8    DF16                           	JE    ??_289_ELSE
;003095                    {
;003096                            if (off_ta(13) != 0)
00001BFA    B10D1C                         	LDB   _AL,#0Dh
00001BFD    EF00E4                         	LCALL off_ta
00001C00    88001C                         	CMP   _AX,0
00001C03    DF0B                           	JE    ??_290_ELSE
;003097                            {
;003098                                    code_av = 45;
00001C05    B12D1C                         	LDB   _AL,#2Dh
00001C08    C70125011C                     	STB   _AL,code_av
;003100                                    goto output_tm;
00001C0D    E7E91B                         	LJMP  ??_output_tm_main
;003101                            }
                 ??_290_ELSE:
;003102                    }
                 ??_289_ELSE:
;003104                    if (on_ta(14) != 0)
00001C10    B10E1C                         	LDB   _AL,#0Eh
00001C13    EFEAE3                         	LCALL on_ta
00001C16    88001C                         	CMP   _AX,0
00001C19    DF08                           	JE    ??_291_ELSE
;003105                    {
;003106                            code_av = 14;
00001C1B    B10E1C                         	LDB   _AL,#0Eh
00001C1E    C70125011C                     	STB   _AL,code_av
;003107                    }
                 ??_291_ELSE:
;003109                    goto output_tm;
00001C23    E7D31B                         	LJMP  ??_output_tm_main
;003110            }
                 ??_288_ELSE:
;003114            if (num_com == 35)
00001C26    99231C                         	CMPB  _AL,#23h
00001C29    D743                           	JNE   ??_292_ELSE
;003115            {
;003116                    if ((tm_2 & 0x10) != 0)
00001C2B    B30135021C                     	LDB   _AL,tm_2
00001C30    71101C                         	ANDB  _AL,#10h
00001C33    98001C                         	CMPB  _AL,0
00001C36    DF13                           	JE    ??_293_ELSE
;003117                    {
;003118                            if (off_ta(13) != 0)
00001C38    B10D1C                         	LDB   _AL,#0Dh
00001C3B    EFC2E3                         	LCALL off_ta
00001C3E    88001C                         	CMP   _AX,0
00001C41    DF08                           	JE    ??_294_ELSE
;003119                            {
;003120                                    code_av = 45;
00001C43    B12D1C                         	LDB   _AL,#2Dh
00001C46    C70125011C                     	STB   _AL,code_av
;003121                            }
                 ??_294_ELSE:
;003122                    }
                 ??_293_ELSE:
;003124                    if ((tm_2 & 0x20) != 0)
00001C4B    B30135021C                     	LDB   _AL,tm_2
00001C50    71201C                         	ANDB  _AL,#20h
00001C53    98001C                         	CMPB  _AL,0
00001C56    DF13                           	JE    ??_295_ELSE
;003125                    {
;003126                            if (off_ta(14) != 0)
00001C58    B10E1C                         	LDB   _AL,#0Eh
00001C5B    EFA2E3                         	LCALL off_ta
00001C5E    88001C                         	CMP   _AX,0
00001C61    DF08                           	JE    ??_296_ELSE
;003127                            {
;003128                                    code_av = 46;
00001C63    B12E1C                         	LDB   _AL,#2Eh
00001C66    C70125011C                     	STB   _AL,code_av
;003129                            }
                 ??_296_ELSE:
;003130                    }
                 ??_295_ELSE:
;003132                    goto output_tm;
00001C6B    E78B1B                         	LJMP  ??_output_tm_main
;003133            }
                 ??_292_ELSE:
;003138            if (num_com == 36)
00001C6E    99241C                         	CMPB  _AL,#24h
00001C71    D748                           	JNE   ??_297_ELSE
;003139            {
;003141                    GR5_X = 0;
00001C73    C701ED0000                     	STB   00h,GR5_X
;003142                    GR0_X = 0;
00001C78    C701E00000                     	STB   00h,GR0_X
;003143                    GR10_X = 0;
00001C7D    C701E20000                     	STB   00h,GR10_X
;003145                    if ((tm_1 & 0x2) != 0)
00001C82    B30132021C                     	LDB   _AL,tm_1
00001C87    71021C                         	ANDB  _AL,#02h
00001C8A    98001C                         	CMPB  _AL,0
00001C8D    DF16                           	JE    ??_298_ELSE
;003146                    {
;003147                            if (off_ta(2) != 0)
00001C8F    B1021C                         	LDB   _AL,#02h
00001C92    EF6BE3                         	LCALL off_ta
00001C95    88001C                         	CMP   _AX,0
00001C98    DF0B                           	JE    ??_299_ELSE
;003148                            {
;003149                                    code_av = 34;
00001C9A    B1221C                         	LDB   _AL,#22h
00001C9D    C70125011C                     	STB   _AL,code_av
;003150                                    goto output_tm;
00001CA2    E7541B                         	LJMP  ??_output_tm_main
;003151                            }
                 ??_299_ELSE:
;003152                    }
                 ??_298_ELSE:
;003154                    if (on_ta(1) != 0)
00001CA5    B1011C                         	LDB   _AL,#01h
00001CA8    EF55E3                         	LCALL on_ta
00001CAB    88001C                         	CMP   _AX,0
00001CAE    DF08                           	JE    ??_300_ELSE
;003155                    {
;003156                            code_av = 1;
00001CB0    B1011C                         	LDB   _AL,#01h
00001CB3    C70125011C                     	STB   _AL,code_av
;003157                    }
                 ??_300_ELSE:
;003159                    goto output_tm;
00001CB8    E73E1B                         	LJMP  ??_output_tm_main
;003160            }
                 ??_297_ELSE:
;003164            if (num_com == 37)
00001CBB    99251C                         	CMPB  _AL,#25h
00001CBE    D748                           	JNE   ??_301_ELSE
;003165            {
;003167                    GR5_X = 0;
00001CC0    C701ED0000                     	STB   00h,GR5_X
;003168                    GR0_X = 0;
00001CC5    C701E00000                     	STB   00h,GR0_X
;003169                    GR10_X = 0;
00001CCA    C701E20000                     	STB   00h,GR10_X
;003171                    if ((tm_1 & 0x1) != 0)
00001CCF    B30132021C                     	LDB   _AL,tm_1
00001CD4    71011C                         	ANDB  _AL,#01h
00001CD7    98001C                         	CMPB  _AL,0
00001CDA    DF16                           	JE    ??_302_ELSE
;003172                    {
;003173                            if (off_ta(1) != 0)
00001CDC    B1011C                         	LDB   _AL,#01h
00001CDF    EF1EE3                         	LCALL off_ta
00001CE2    88001C                         	CMP   _AX,0
00001CE5    DF0B                           	JE    ??_303_ELSE
;003174                            {
;003175                                    code_av = 33;
00001CE7    B1211C                         	LDB   _AL,#21h
00001CEA    C70125011C                     	STB   _AL,code_av
;003176                                    goto output_tm;
00001CEF    E7071B                         	LJMP  ??_output_tm_main
;003177                            }
                 ??_303_ELSE:
;003178                    }
                 ??_302_ELSE:
;003180                    if (on_ta(2) != 0)
00001CF2    B1021C                         	LDB   _AL,#02h
00001CF5    EF08E3                         	LCALL on_ta
00001CF8    88001C                         	CMP   _AX,0
00001CFB    DF08                           	JE    ??_304_ELSE
;003181                    {
;003182                            code_av = 2;
00001CFD    B1021C                         	LDB   _AL,#02h
00001D00    C70125011C                     	STB   _AL,code_av
;003183                    }
                 ??_304_ELSE:
;003185                    goto output_tm;
00001D05    E7F11A                         	LJMP  ??_output_tm_main
;003186            }
                 ??_301_ELSE:
;003191            if (num_com == 38)
00001D08    99261C                         	CMPB  _AL,#26h
00001D0B    D752                           	JNE   ??_305_ELSE
;003192            {
;003194                    GR5_X = 0;
00001D0D    C701ED0000                     	STB   00h,GR5_X
;003195                    GR0_X = 0;
00001D12    C701E00000                     	STB   00h,GR0_X
;003196                    GR10_X = 0;
00001D17    C701E20000                     	STB   00h,GR10_X
;003198                    if ((tm_1 & 0x1) != 0)
00001D1C    B30132021C                     	LDB   _AL,tm_1
00001D21    71011C                         	ANDB  _AL,#01h
00001D24    98001C                         	CMPB  _AL,0
00001D27    DF13                           	JE    ??_306_ELSE
;003199                    {
;003200                            if (off_ta(1) != 0)
00001D29    B1011C                         	LDB   _AL,#01h
00001D2C    EFD1E2                         	LCALL off_ta
00001D2F    88001C                         	CMP   _AX,0
00001D32    DF08                           	JE    ??_307_ELSE
;003201                            {
;003202                                    code_av = 33;
00001D34    B1211C                         	LDB   _AL,#21h
00001D37    C70125011C                     	STB   _AL,code_av
;003203                            }
                 ??_307_ELSE:
;003204                    }
                 ??_306_ELSE:
;003206                    if ((tm_1 & 0x2) != 0)
00001D3C    B30132021C                     	LDB   _AL,tm_1
00001D41    71021C                         	ANDB  _AL,#02h
00001D44    98001C                         	CMPB  _AL,0
00001D47    DF13                           	JE    ??_308_ELSE
;003207                    {
;003208                            if (off_ta(2) != 0)
00001D49    B1021C                         	LDB   _AL,#02h
00001D4C    EFB1E2                         	LCALL off_ta
00001D4F    88001C                         	CMP   _AX,0
00001D52    DF08                           	JE    ??_309_ELSE
;003209                            {
;003210                                    code_av = 34;
00001D54    B1221C                         	LDB   _AL,#22h
00001D57    C70125011C                     	STB   _AL,code_av
;003211                            }
                 ??_309_ELSE:
;003212                    }
                 ??_308_ELSE:
;003214                    goto output_tm;
00001D5C    E79A1A                         	LJMP  ??_output_tm_main
;003215            }
                 ??_305_ELSE:
;003220            if (num_com == 39)
00001D5F    99271C                         	CMPB  _AL,#27h
00001D62    D748                           	JNE   ??_310_ELSE
;003221            {
;003223                    GR5_X = 0;
00001D64    C701ED0000                     	STB   00h,GR5_X
;003224                    GR0_X = 0;
00001D69    C701E00000                     	STB   00h,GR0_X
;003225                    GR10_X = 0;
00001D6E    C701E20000                     	STB   00h,GR10_X
;003227                    if ((tm_1 & 0x8) != 0)
00001D73    B30132021C                     	LDB   _AL,tm_1
00001D78    71081C                         	ANDB  _AL,#08h
00001D7B    98001C                         	CMPB  _AL,0
00001D7E    DF16                           	JE    ??_311_ELSE
;003228                    {
;003229                            if (off_ta(4) != 0)
00001D80    B1041C                         	LDB   _AL,#04h
00001D83    EF7AE2                         	LCALL off_ta
00001D86    88001C                         	CMP   _AX,0
00001D89    DF0B                           	JE    ??_312_ELSE
;003230                            {
;003231                                    code_av = 36;
00001D8B    B1241C                         	LDB   _AL,#24h
00001D8E    C70125011C                     	STB   _AL,code_av
;003232                                    goto output_tm;
00001D93    E7631A                         	LJMP  ??_output_tm_main
;003233                            }
                 ??_312_ELSE:
;003234                    }
                 ??_311_ELSE:
;003236                    if (on_ta(3) != 0)
00001D96    B1031C                         	LDB   _AL,#03h
00001D99    EF64E2                         	LCALL on_ta
00001D9C    88001C                         	CMP   _AX,0
00001D9F    DF08                           	JE    ??_313_ELSE
;003237                    {
;003238                            code_av = 3;
00001DA1    B1031C                         	LDB   _AL,#03h
00001DA4    C70125011C                     	STB   _AL,code_av
;003239                    }
                 ??_313_ELSE:
;003241                    goto output_tm;
00001DA9    E74D1A                         	LJMP  ??_output_tm_main
;003242            }
                 ??_310_ELSE:
;003247            if (num_com == 40)
00001DAC    99281C                         	CMPB  _AL,#28h
00001DAF    D748                           	JNE   ??_314_ELSE
;003248            {
;003250                    GR5_X = 0;
00001DB1    C701ED0000                     	STB   00h,GR5_X
;003251                    GR0_X = 0;
00001DB6    C701E00000                     	STB   00h,GR0_X
;003252                    GR10_X = 0;
00001DBB    C701E20000                     	STB   00h,GR10_X
;003254                    if ((tm_1 & 0x4) != 0)
00001DC0    B30132021C                     	LDB   _AL,tm_1
00001DC5    71041C                         	ANDB  _AL,#04h
00001DC8    98001C                         	CMPB  _AL,0
00001DCB    DF16                           	JE    ??_315_ELSE
;003255                    {
;003256                            if (off_ta(3) != 0)
00001DCD    B1031C                         	LDB   _AL,#03h
00001DD0    EF2DE2                         	LCALL off_ta
00001DD3    88001C                         	CMP   _AX,0
00001DD6    DF0B                           	JE    ??_316_ELSE
;003257                            {
;003258                                    code_av = 35;
00001DD8    B1231C                         	LDB   _AL,#23h
00001DDB    C70125011C                     	STB   _AL,code_av
;003260                                    goto output_tm;
00001DE0    E7161A                         	LJMP  ??_output_tm_main
;003261                            }
                 ??_316_ELSE:
;003262                    }
                 ??_315_ELSE:
;003264                    if (on_ta(4) != 0)
00001DE3    B1041C                         	LDB   _AL,#04h
00001DE6    EF17E2                         	LCALL on_ta
00001DE9    88001C                         	CMP   _AX,0
00001DEC    DF08                           	JE    ??_317_ELSE
;003265                    {
;003266                            code_av = 4;
00001DEE    B1041C                         	LDB   _AL,#04h
00001DF1    C70125011C                     	STB   _AL,code_av
;003267                    }
                 ??_317_ELSE:
;003269                    goto output_tm;
00001DF6    E7001A                         	LJMP  ??_output_tm_main
;003270            }
                 ??_314_ELSE:
;003275            if (num_com == 41)
00001DF9    99291C                         	CMPB  _AL,#29h
00001DFC    D752                           	JNE   ??_318_ELSE
;003276            {
;003279                    GR5_X = 0;
00001DFE    C701ED0000                     	STB   00h,GR5_X
;003280                    GR0_X = 0;
00001E03    C701E00000                     	STB   00h,GR0_X
;003281                    GR10_X = 0;
00001E08    C701E20000                     	STB   00h,GR10_X
;003283                    if ((tm_1 & 0x4) != 0)
00001E0D    B30132021C                     	LDB   _AL,tm_1
00001E12    71041C                         	ANDB  _AL,#04h
00001E15    98001C                         	CMPB  _AL,0
00001E18    DF13                           	JE    ??_319_ELSE
;003284                    {
;003285                            if (off_ta(3) != 0)
00001E1A    B1031C                         	LDB   _AL,#03h
00001E1D    EFE0E1                         	LCALL off_ta
00001E20    88001C                         	CMP   _AX,0
00001E23    DF08                           	JE    ??_320_ELSE
;003286                            {
;003287                                    code_av = 35;
00001E25    B1231C                         	LDB   _AL,#23h
00001E28    C70125011C                     	STB   _AL,code_av
;003288                            }
                 ??_320_ELSE:
;003289                    }
                 ??_319_ELSE:
;003291                    if ((tm_1 & 0x8) != 0)
00001E2D    B30132021C                     	LDB   _AL,tm_1
00001E32    71081C                         	ANDB  _AL,#08h
00001E35    98001C                         	CMPB  _AL,0
00001E38    DF13                           	JE    ??_321_ELSE
;003292                    {
;003293                            if (off_ta(4) != 0)
00001E3A    B1041C                         	LDB   _AL,#04h
00001E3D    EFC0E1                         	LCALL off_ta
00001E40    88001C                         	CMP   _AX,0
00001E43    DF08                           	JE    ??_322_ELSE
;003294                            {
;003295                                    code_av = 36;
00001E45    B1241C                         	LDB   _AL,#24h
00001E48    C70125011C                     	STB   _AL,code_av
;003296                            }
                 ??_322_ELSE:
;003297                    }
                 ??_321_ELSE:
;003299                    goto output_tm;
00001E4D    E7A919                         	LJMP  ??_output_tm_main
;003300            }
                 ??_318_ELSE:
;003306            if (num_com == 42)
00001E50    992A1C                         	CMPB  _AL,#2Ah
00001E53    D748                           	JNE   ??_323_ELSE
;003307            {
;003309                    GR5_Y = 0;
00001E55    C701EE0000                     	STB   00h,GR5_Y
;003310                    GR0_Y = 0;
00001E5A    C701E10000                     	STB   00h,GR0_Y
;003311                    GR10_Y = 0;
00001E5F    C701E30000                     	STB   00h,GR10_Y
;003313                    if ((tm_1 & 0x20) != 0)
00001E64    B30132021C                     	LDB   _AL,tm_1
00001E69    71201C                         	ANDB  _AL,#20h
00001E6C    98001C                         	CMPB  _AL,0
00001E6F    DF16                           	JE    ??_324_ELSE
;003314                    {
;003315                            if (off_ta(6) != 0)
00001E71    B1061C                         	LDB   _AL,#06h
00001E74    EF89E1                         	LCALL off_ta
00001E77    88001C                         	CMP   _AX,0
00001E7A    DF0B                           	JE    ??_325_ELSE
;003316                            {
;003317                                    code_av = 38;
00001E7C    B1261C                         	LDB   _AL,#26h
00001E7F    C70125011C                     	STB   _AL,code_av
;003318                                    goto output_tm;
00001E84    E77219                         	LJMP  ??_output_tm_main
;003319                            }
                 ??_325_ELSE:
;003320                    }
                 ??_324_ELSE:
;003322                    if (on_ta(5) != 0)
00001E87    B1051C                         	LDB   _AL,#05h
00001E8A    EF73E1                         	LCALL on_ta
00001E8D    88001C                         	CMP   _AX,0
00001E90    DF08                           	JE    ??_326_ELSE
;003323                    {
;003324                            code_av = 5;
00001E92    B1051C                         	LDB   _AL,#05h
00001E95    C70125011C                     	STB   _AL,code_av
;003325                    }
                 ??_326_ELSE:
;003327                    goto output_tm;
00001E9A    E75C19                         	LJMP  ??_output_tm_main
;003328            }
                 ??_323_ELSE:
;003333            if (num_com == 43)
00001E9D    992B1C                         	CMPB  _AL,#2Bh
00001EA0    D748                           	JNE   ??_327_ELSE
;003334            {
;003336                    GR5_Y = 0;
00001EA2    C701EE0000                     	STB   00h,GR5_Y
;003337                    GR0_Y = 0;
00001EA7    C701E10000                     	STB   00h,GR0_Y
;003338                    GR10_Y = 0;
00001EAC    C701E30000                     	STB   00h,GR10_Y
;003340                    if ((tm_1 & 0x10) != 0)
00001EB1    B30132021C                     	LDB   _AL,tm_1
00001EB6    71101C                         	ANDB  _AL,#10h
00001EB9    98001C                         	CMPB  _AL,0
00001EBC    DF16                           	JE    ??_328_ELSE
;003341                    {
;003342                            if (off_ta(5) != 0)
00001EBE    B1051C                         	LDB   _AL,#05h
00001EC1    EF3CE1                         	LCALL off_ta
00001EC4    88001C                         	CMP   _AX,0
00001EC7    DF0B                           	JE    ??_329_ELSE
;003343                            {
;003344                                    code_av = 37;
00001EC9    B1251C                         	LDB   _AL,#25h
00001ECC    C70125011C                     	STB   _AL,code_av
;003345                                    goto output_tm;
00001ED1    E72519                         	LJMP  ??_output_tm_main
;003346                            }
                 ??_329_ELSE:
;003347                    }
                 ??_328_ELSE:
;003349                    if (on_ta(6) != 0)
00001ED4    B1061C                         	LDB   _AL,#06h
00001ED7    EF26E1                         	LCALL on_ta
00001EDA    88001C                         	CMP   _AX,0
00001EDD    DF08                           	JE    ??_330_ELSE
;003350                    {
;003351                            code_av = 6;
00001EDF    B1061C                         	LDB   _AL,#06h
00001EE2    C70125011C                     	STB   _AL,code_av
;003352                    }
                 ??_330_ELSE:
;003354                    goto output_tm;
00001EE7    E70F19                         	LJMP  ??_output_tm_main
;003355            }
                 ??_327_ELSE:
;003359            if (num_com == 44)
00001EEA    992C1C                         	CMPB  _AL,#2Ch
00001EED    D752                           	JNE   ??_331_ELSE
;003360            {
;003362                    GR5_Y = 0;
00001EEF    C701EE0000                     	STB   00h,GR5_Y
;003363                    GR0_Y = 0;
00001EF4    C701E10000                     	STB   00h,GR0_Y
;003364                    GR10_Y = 0;
00001EF9    C701E30000                     	STB   00h,GR10_Y
;003366                    if ((tm_1 & 0x10) != 0)
00001EFE    B30132021C                     	LDB   _AL,tm_1
00001F03    71101C                         	ANDB  _AL,#10h
00001F06    98001C                         	CMPB  _AL,0
00001F09    DF13                           	JE    ??_332_ELSE
;003367                    {
;003368                            if (off_ta(5) != 0)
00001F0B    B1051C                         	LDB   _AL,#05h
00001F0E    EFEFE0                         	LCALL off_ta
00001F11    88001C                         	CMP   _AX,0
00001F14    DF08                           	JE    ??_333_ELSE
;003369                            {
;003370                                    code_av = 37;
00001F16    B1251C                         	LDB   _AL,#25h
00001F19    C70125011C                     	STB   _AL,code_av
;003371                            }
                 ??_333_ELSE:
;003372                    }
                 ??_332_ELSE:
;003374                    if ((tm_1 & 0x20) != 0)
00001F1E    B30132021C                     	LDB   _AL,tm_1
00001F23    71201C                         	ANDB  _AL,#20h
00001F26    98001C                         	CMPB  _AL,0
00001F29    DF13                           	JE    ??_334_ELSE
;003375                    {
;003376                            if (off_ta(6) != 0)
00001F2B    B1061C                         	LDB   _AL,#06h
00001F2E    EFCFE0                         	LCALL off_ta
00001F31    88001C                         	CMP   _AX,0
00001F34    DF08                           	JE    ??_335_ELSE
;003377                            {
;003378                                    code_av = 38;
00001F36    B1261C                         	LDB   _AL,#26h
00001F39    C70125011C                     	STB   _AL,code_av
;003379                            }
                 ??_335_ELSE:
;003380                    }
                 ??_334_ELSE:
;003382                    goto output_tm;
00001F3E    E7B818                         	LJMP  ??_output_tm_main
;003383            }
                 ??_331_ELSE:
;003387            if (num_com == 45)
00001F41    992D1C                         	CMPB  _AL,#2Dh
00001F44    D748                           	JNE   ??_336_ELSE
;003388            {
;003390                    GR5_Y = 0;
00001F46    C701EE0000                     	STB   00h,GR5_Y
;003391                    GR0_Y = 0;
00001F4B    C701E10000                     	STB   00h,GR0_Y
;003392                    GR10_Y = 0;
00001F50    C701E30000                     	STB   00h,GR10_Y
;003394                    if ((tm_1 & 0x80) != 0)
00001F55    B30132021C                     	LDB   _AL,tm_1
00001F5A    71801C                         	ANDB  _AL,#80h
00001F5D    98001C                         	CMPB  _AL,0
00001F60    DF16                           	JE    ??_337_ELSE
;003395                    {
;003396                            if (off_ta(8) != 0)
00001F62    B1081C                         	LDB   _AL,#08h
00001F65    EF98E0                         	LCALL off_ta
00001F68    88001C                         	CMP   _AX,0
00001F6B    DF0B                           	JE    ??_338_ELSE
;003397                            {
;003398                                    code_av = 40;
00001F6D    B1281C                         	LDB   _AL,#28h
00001F70    C70125011C                     	STB   _AL,code_av
;003400                                    goto output_tm;
00001F75    E78118                         	LJMP  ??_output_tm_main
;003401                            }
                 ??_338_ELSE:
;003402                    }
                 ??_337_ELSE:
;003404                    if (on_ta(7) != 0)
00001F78    B1071C                         	LDB   _AL,#07h
00001F7B    EF82E0                         	LCALL on_ta
00001F7E    88001C                         	CMP   _AX,0
00001F81    DF08                           	JE    ??_339_ELSE
;003405                    {
;003406                            code_av = 7;
00001F83    B1071C                         	LDB   _AL,#07h
00001F86    C70125011C                     	STB   _AL,code_av
;003407                    }
                 ??_339_ELSE:
;003409                    goto output_tm;
00001F8B    E76B18                         	LJMP  ??_output_tm_main
;003410            }
                 ??_336_ELSE:
;003415            if (num_com == 46)
00001F8E    992E1C                         	CMPB  _AL,#2Eh
00001F91    D748                           	JNE   ??_340_ELSE
;003416            {
;003418                    GR5_Y = 0;
00001F93    C701EE0000                     	STB   00h,GR5_Y
;003419                    GR0_Y = 0;
00001F98    C701E10000                     	STB   00h,GR0_Y
;003420                    GR10_Y = 0;
00001F9D    C701E30000                     	STB   00h,GR10_Y
;003422                    if ((tm_1 & 0x40) != 0)
00001FA2    B30132021C                     	LDB   _AL,tm_1
00001FA7    71401C                         	ANDB  _AL,#40h
00001FAA    98001C                         	CMPB  _AL,0
00001FAD    DF16                           	JE    ??_341_ELSE
;003423                    {
;003424                            if (off_ta(7) != 0)
00001FAF    B1071C                         	LDB   _AL,#07h
00001FB2    EF4BE0                         	LCALL off_ta
00001FB5    88001C                         	CMP   _AX,0
00001FB8    DF0B                           	JE    ??_342_ELSE
;003425                            {
;003426                                    code_av = 39;
00001FBA    B1271C                         	LDB   _AL,#27h
00001FBD    C70125011C                     	STB   _AL,code_av
;003427                                    goto output_tm;
00001FC2    E73418                         	LJMP  ??_output_tm_main
;003428                            }
                 ??_342_ELSE:
;003429                    }
                 ??_341_ELSE:
;003431                    if (on_ta(8) != 0)
00001FC5    B1081C                         	LDB   _AL,#08h
00001FC8    EF35E0                         	LCALL on_ta
00001FCB    88001C                         	CMP   _AX,0
00001FCE    DF08                           	JE    ??_343_ELSE
;003432                    {
;003433                            code_av = 8;
00001FD0    B1081C                         	LDB   _AL,#08h
00001FD3    C70125011C                     	STB   _AL,code_av
;003434                    }
                 ??_343_ELSE:
;003436                    goto output_tm;
00001FD8    E71E18                         	LJMP  ??_output_tm_main
;003437             }
                 ??_340_ELSE:
;003441            if (num_com == 47)
00001FDB    992F1C                         	CMPB  _AL,#2Fh
00001FDE    D752                           	JNE   ??_344_ELSE
;003442            {
;003444                    GR5_Y = 0;
00001FE0    C701EE0000                     	STB   00h,GR5_Y
;003445                    GR0_Y = 0;
00001FE5    C701E10000                     	STB   00h,GR0_Y
;003446                    GR10_Y = 0;
00001FEA    C701E30000                     	STB   00h,GR10_Y
;003448                    if ((tm_1 & 0x40) != 0)
00001FEF    B30132021C                     	LDB   _AL,tm_1
00001FF4    71401C                         	ANDB  _AL,#40h
00001FF7    98001C                         	CMPB  _AL,0
00001FFA    DF13                           	JE    ??_345_ELSE
;003449                    {
;003450                            if (off_ta(7) != 0)
00001FFC    B1071C                         	LDB   _AL,#07h
00001FFF    EFFEDF                         	LCALL off_ta
00002002    88001C                         	CMP   _AX,0
00002005    DF08                           	JE    ??_346_ELSE
;003451                            {
;003452                                    code_av = 39;
00002007    B1271C                         	LDB   _AL,#27h
0000200A    C70125011C                     	STB   _AL,code_av
;003453                            }
                 ??_346_ELSE:
;003454                    }
                 ??_345_ELSE:
;003456                    if ((tm_1 & 0x80) != 0)
0000200F    B30132021C                     	LDB   _AL,tm_1
00002014    71801C                         	ANDB  _AL,#80h
00002017    98001C                         	CMPB  _AL,0
0000201A    DF13                           	JE    ??_347_ELSE
;003457                    {
;003458                            if (off_ta(8) != 0)
0000201C    B1081C                         	LDB   _AL,#08h
0000201F    EFDEDF                         	LCALL off_ta
00002022    88001C                         	CMP   _AX,0
00002025    DF08                           	JE    ??_348_ELSE
;003459                            {
;003460                                    code_av = 40;
00002027    B1281C                         	LDB   _AL,#28h
0000202A    C70125011C                     	STB   _AL,code_av
;003461                            }
                 ??_348_ELSE:
;003462                    }
                 ??_347_ELSE:
;003464                    goto output_tm;
0000202F    E7C717                         	LJMP  ??_output_tm_main
;003465            }
                 ??_344_ELSE:
;003469            if (num_com == 48)
00002032    99301C                         	CMPB  _AL,#30h
00002035    D748                           	JNE   ??_349_ELSE
;003470            {
;003472                    GR19_18 = 0;
00002037    C701E70000                     	STB   00h,GR19_18
;003473                    GR18_17 = 0;
0000203C    C701E60000                     	STB   00h,GR18_17
;003474                    GR24_25 = 0;
00002041    C701EB0000                     	STB   00h,GR24_25
;003476                    if ((tm_2 & 0x2) != 0)
00002046    B30135021C                     	LDB   _AL,tm_2
0000204B    71021C                         	ANDB  _AL,#02h
0000204E    98001C                         	CMPB  _AL,0
00002051    DF16                           	JE    ??_350_ELSE
;003477                    {
;003478                            if (off_ta(10) != 0)
00002053    B10A1C                         	LDB   _AL,#0Ah
00002056    EFA7DF                         	LCALL off_ta
00002059    88001C                         	CMP   _AX,0
0000205C    DF0B                           	JE    ??_351_ELSE
;003479                            {
;003480                                    code_av = 42;
0000205E    B12A1C                         	LDB   _AL,#2Ah
00002061    C70125011C                     	STB   _AL,code_av
;003481                                    goto output_tm;
00002066    E79017                         	LJMP  ??_output_tm_main
;003482                            }
                 ??_351_ELSE:
;003483                    }
                 ??_350_ELSE:
;003485                    if (on_ta(9) != 0)
00002069    B1091C                         	LDB   _AL,#09h
0000206C    EF91DF                         	LCALL on_ta
0000206F    88001C                         	CMP   _AX,0
00002072    DF08                           	JE    ??_352_ELSE
;003486                    {
;003487                            code_av = 9;
00002074    B1091C                         	LDB   _AL,#09h
00002077    C70125011C                     	STB   _AL,code_av
;003488                    }
                 ??_352_ELSE:
;003490                    goto output_tm;
0000207C    E77A17                         	LJMP  ??_output_tm_main
;003491            }
                 ??_349_ELSE:
;003496            if (num_com == 49)
0000207F    99311C                         	CMPB  _AL,#31h
00002082    D748                           	JNE   ??_353_ELSE
;003497            {
;003499                    GR19_18 = 0;
00002084    C701E70000                     	STB   00h,GR19_18
;003500                    GR18_17 = 0;
00002089    C701E60000                     	STB   00h,GR18_17
;003501                    GR24_25 = 0;
0000208E    C701EB0000                     	STB   00h,GR24_25
;003503                    if ((tm_2 & 0x1) != 0)
00002093    B30135021C                     	LDB   _AL,tm_2
00002098    71011C                         	ANDB  _AL,#01h
0000209B    98001C                         	CMPB  _AL,0
0000209E    DF16                           	JE    ??_354_ELSE
;003504                    {
;003505                            if (off_ta(9) != 0)
000020A0    B1091C                         	LDB   _AL,#09h
000020A3    EF5ADF                         	LCALL off_ta
000020A6    88001C                         	CMP   _AX,0
000020A9    DF0B                           	JE    ??_355_ELSE
;003506                            {
;003507                                    code_av = 41;
000020AB    B1291C                         	LDB   _AL,#29h
000020AE    C70125011C                     	STB   _AL,code_av
;003508                                    goto output_tm;
000020B3    E74317                         	LJMP  ??_output_tm_main
;003509                            }
                 ??_355_ELSE:
;003510                    }
                 ??_354_ELSE:
;003512                    if (on_ta(10) != 0)
000020B6    B10A1C                         	LDB   _AL,#0Ah
000020B9    EF44DF                         	LCALL on_ta
000020BC    88001C                         	CMP   _AX,0
000020BF    DF08                           	JE    ??_356_ELSE
;003513                    {
;003514                            code_av = 10;
000020C1    B10A1C                         	LDB   _AL,#0Ah
000020C4    C70125011C                     	STB   _AL,code_av
;003515                    }
                 ??_356_ELSE:
;003517                    goto output_tm;
000020C9    E72D17                         	LJMP  ??_output_tm_main
;003518            }
                 ??_353_ELSE:
;003523            if (num_com == 50)
000020CC    99321C                         	CMPB  _AL,#32h
000020CF    D748                           	JNE   ??_357_ELSE
;003524            {
;003526                    GR19_18 = 0;
000020D1    C701E70000                     	STB   00h,GR19_18
;003527                    GR18_17 = 0;
000020D6    C701E60000                     	STB   00h,GR18_17
;003528                    GR24_25 = 0;
000020DB    C701EB0000                     	STB   00h,GR24_25
;003530                    if ((tm_2 & 0x8) != 0)
000020E0    B30135021C                     	LDB   _AL,tm_2
000020E5    71081C                         	ANDB  _AL,#08h
000020E8    98001C                         	CMPB  _AL,0
000020EB    DF16                           	JE    ??_358_ELSE
;003531                    {
;003532                            if (off_ta(12) != 0)
000020ED    B10C1C                         	LDB   _AL,#0Ch
000020F0    EF0DDF                         	LCALL off_ta
000020F3    88001C                         	CMP   _AX,0
000020F6    DF0B                           	JE    ??_359_ELSE
;003533                            {
;003534                                    code_av = 44;
000020F8    B12C1C                         	LDB   _AL,#2Ch
000020FB    C70125011C                     	STB   _AL,code_av
;003535                                    goto output_tm;
00002100    E7F616                         	LJMP  ??_output_tm_main
;003536                            }
                 ??_359_ELSE:
;003537                    }
                 ??_358_ELSE:
;003539                    if (on_ta(11) != 0)
00002103    B10B1C                         	LDB   _AL,#0Bh
00002106    EFF7DE                         	LCALL on_ta
00002109    88001C                         	CMP   _AX,0
0000210C    DF08                           	JE    ??_360_ELSE
;003540                    {
;003541                            code_av = 11;
0000210E    B10B1C                         	LDB   _AL,#0Bh
00002111    C70125011C                     	STB   _AL,code_av
;003542                    }
                 ??_360_ELSE:
;003544                    goto output_tm;
00002116    E7E016                         	LJMP  ??_output_tm_main
;003545            }
                 ??_357_ELSE:
;003549            if (num_com == 51)
00002119    99331C                         	CMPB  _AL,#33h
0000211C    D748                           	JNE   ??_361_ELSE
;003550            {
;003552                    GR19_18 = 0;
0000211E    C701E70000                     	STB   00h,GR19_18
;003553                    GR18_17 = 0;
00002123    C701E60000                     	STB   00h,GR18_17
;003554                    GR24_25 = 0;
00002128    C701EB0000                     	STB   00h,GR24_25
;003556                    if ((tm_2 & 0x4) != 0)
0000212D    B30135021C                     	LDB   _AL,tm_2
00002132    71041C                         	ANDB  _AL,#04h
00002135    98001C                         	CMPB  _AL,0
00002138    DF16                           	JE    ??_362_ELSE
;003557                    {
;003558                            if (off_ta(11) != 0)
0000213A    B10B1C                         	LDB   _AL,#0Bh
0000213D    EFC0DE                         	LCALL off_ta
00002140    88001C                         	CMP   _AX,0
00002143    DF0B                           	JE    ??_363_ELSE
;003559                            {
;003560                                    code_av = 43;
00002145    B12B1C                         	LDB   _AL,#2Bh
00002148    C70125011C                     	STB   _AL,code_av
;003561                                    goto output_tm;
0000214D    E7A916                         	LJMP  ??_output_tm_main
;003562                            }
                 ??_363_ELSE:
;003563                    }
                 ??_362_ELSE:
;003565                    if (on_ta(12) != 0)
00002150    B10C1C                         	LDB   _AL,#0Ch
00002153    EFAADE                         	LCALL on_ta
00002156    88001C                         	CMP   _AX,0
00002159    DF08                           	JE    ??_364_ELSE
;003566                    {
;003567                            code_av = 12;
0000215B    B10C1C                         	LDB   _AL,#0Ch
0000215E    C70125011C                     	STB   _AL,code_av
;003568                    }
                 ??_364_ELSE:
;003570                    goto output_tm;
00002163    E79316                         	LJMP  ??_output_tm_main
;003571            }
                 ??_361_ELSE:
;003575            if (num_com == 52)
00002166    99341C                         	CMPB  _AL,#34h
00002169    D715                           	JNE   ??_365_ELSE
;003576            {
;003578                    GR19_18 = 0;
0000216B    C701E70000                     	STB   00h,GR19_18
;003579                    GR18_17 = 0;
00002170    C701E60000                     	STB   00h,GR18_17
;003580                    GR24_25 = 0;
00002175    C701EB0000                     	STB   00h,GR24_25
;003582                    off_all_nag();
0000217A    EF83DE                         	LCALL off_all_nag
;003584                    goto output_tm;
0000217D    E77916                         	LJMP  ??_output_tm_main
;003585            }
                 ??_365_ELSE:
;003589            if (num_com == 53)
00002180    99351C                         	CMPB  _AL,#35h
00002183    D739                           	JNE   ??_366_ELSE
;003590            {
;003591                    if ((tm_4 & 0x2) != 0)
00002185    B3013D021C                     	LDB   _AL,tm_4
0000218A    71021C                         	ANDB  _AL,#02h
0000218D    98001C                         	CMPB  _AL,0
00002190    DF16                           	JE    ??_367_ELSE
;003592                    {
;003593                            if (off_ta(26) != 0)
00002192    B11A1C                         	LDB   _AL,#1Ah
00002195    EF68DE                         	LCALL off_ta
00002198    88001C                         	CMP   _AX,0
0000219B    DF0B                           	JE    ??_368_ELSE
;003594                            {
;003595                                    code_av = 56;
0000219D    B1381C                         	LDB   _AL,#38h
000021A0    C70125011C                     	STB   _AL,code_av
;003596                                    goto output_tm;
000021A5    E75116                         	LJMP  ??_output_tm_main
;003597                            }
                 ??_368_ELSE:
;003598                    }
                 ??_367_ELSE:
;003600                    if (on_ta(25) != 0)
000021A8    B1191C                         	LDB   _AL,#19h
000021AB    EF52DE                         	LCALL on_ta
000021AE    88001C                         	CMP   _AX,0
000021B1    DF08                           	JE    ??_369_ELSE
;003601                    {
;003602                            code_av = 23;
000021B3    B1171C                         	LDB   _AL,#17h
000021B6    C70125011C                     	STB   _AL,code_av
;003603                    }
                 ??_369_ELSE:
;003605                    goto output_tm;
000021BB    E73B16                         	LJMP  ??_output_tm_main
;003606            }
                 ??_366_ELSE:
;003610            if (num_com == 54)
000021BE    99361C                         	CMPB  _AL,#36h
000021C1    D739                           	JNE   ??_370_ELSE
;003611            {
;003612                    if ((tm_4 & 0x1) != 0)
000021C3    B3013D021C                     	LDB   _AL,tm_4
000021C8    71011C                         	ANDB  _AL,#01h
000021CB    98001C                         	CMPB  _AL,0
000021CE    DF16                           	JE    ??_371_ELSE
;003613                    {
;003614                            if (off_ta(25) != 0)
000021D0    B1191C                         	LDB   _AL,#19h
000021D3    EF2ADE                         	LCALL off_ta
000021D6    88001C                         	CMP   _AX,0
000021D9    DF0B                           	JE    ??_372_ELSE
;003615                            {
;003616                                    code_av = 55;
000021DB    B1371C                         	LDB   _AL,#37h
000021DE    C70125011C                     	STB   _AL,code_av
;003617                                    goto output_tm;
000021E3    E71316                         	LJMP  ??_output_tm_main
;003618                            }
                 ??_372_ELSE:
;003619                    }
                 ??_371_ELSE:
;003621                    if (on_ta(26) != 0)
000021E6    B11A1C                         	LDB   _AL,#1Ah
000021E9    EF14DE                         	LCALL on_ta
000021EC    88001C                         	CMP   _AX,0
000021EF    DF08                           	JE    ??_373_ELSE
;003622                    {
;003623                            code_av = 24;
000021F1    B1181C                         	LDB   _AL,#18h
000021F4    C70125011C                     	STB   _AL,code_av
;003624                    }
                 ??_373_ELSE:
;003626                    goto output_tm;
000021F9    E7FD15                         	LJMP  ??_output_tm_main
;003627            }
                 ??_370_ELSE:
;003631            if (num_com == 55)
000021FC    99371C                         	CMPB  _AL,#37h
000021FF    D743                           	JNE   ??_374_ELSE
;003632            {
;003633                    if ((tm_4 & 0x1) != 0)
00002201    B3013D021C                     	LDB   _AL,tm_4
00002206    71011C                         	ANDB  _AL,#01h
00002209    98001C                         	CMPB  _AL,0
0000220C    DF13                           	JE    ??_375_ELSE
;003634                    {
;003635                            if (off_ta(25) != 0)
0000220E    B1191C                         	LDB   _AL,#19h
00002211    EFECDD                         	LCALL off_ta
00002214    88001C                         	CMP   _AX,0
00002217    DF08                           	JE    ??_376_ELSE
;003636                            {
;003637                                    code_av = 55;
00002219    B1371C                         	LDB   _AL,#37h
0000221C    C70125011C                     	STB   _AL,code_av
;003638                            }
                 ??_376_ELSE:
;003639                    }
                 ??_375_ELSE:
;003641                    if ((tm_4 & 0x2) != 0)
00002221    B3013D021C                     	LDB   _AL,tm_4
00002226    71021C                         	ANDB  _AL,#02h
00002229    98001C                         	CMPB  _AL,0
0000222C    DF13                           	JE    ??_377_ELSE
;003642                    {
;003643                            if (off_ta(26) != 0)
0000222E    B11A1C                         	LDB   _AL,#1Ah
00002231    EFCCDD                         	LCALL off_ta
00002234    88001C                         	CMP   _AX,0
00002237    DF08                           	JE    ??_378_ELSE
;003644                            {
;003645                                    code_av = 56;
00002239    B1381C                         	LDB   _AL,#38h
0000223C    C70125011C                     	STB   _AL,code_av
;003646                            }
                 ??_378_ELSE:
;003647                    }
                 ??_377_ELSE:
;003649                    goto output_tm;
00002241    E7B515                         	LJMP  ??_output_tm_main
;003650            }
                 ??_374_ELSE:
;003654            if (num_com == 56)
00002244    99381C                         	CMPB  _AL,#38h
00002247    D739                           	JNE   ??_379_ELSE
;003655            {
;003656                    if ((tm_2 & 0x80) != 0)
00002249    B30135021C                     	LDB   _AL,tm_2
0000224E    71801C                         	ANDB  _AL,#80h
00002251    98001C                         	CMPB  _AL,0
00002254    DF16                           	JE    ??_380_ELSE
;003657                    {
;003658                            if (off_ta(28) != 0)
00002256    B11C1C                         	LDB   _AL,#1Ch
00002259    EFA4DD                         	LCALL off_ta
0000225C    88001C                         	CMP   _AX,0
0000225F    DF0B                           	JE    ??_381_ELSE
;003659                            {
;003660                                    code_av = 62;
00002261    B13E1C                         	LDB   _AL,#3Eh
00002264    C70125011C                     	STB   _AL,code_av
;003661                                    goto output_tm;
00002269    E78D15                         	LJMP  ??_output_tm_main
;003662                            }
                 ??_381_ELSE:
;003663                    }
                 ??_380_ELSE:
;003665                    if (on_ta(27) != 0)
0000226C    B11B1C                         	LDB   _AL,#1Bh
0000226F    EF8EDD                         	LCALL on_ta
00002272    88001C                         	CMP   _AX,0
00002275    DF08                           	JE    ??_382_ELSE
;003666                    {
;003667                            code_av = 29;
00002277    B11D1C                         	LDB   _AL,#1Dh
0000227A    C70125011C                     	STB   _AL,code_av
;003668                    }
                 ??_382_ELSE:
;003670                    goto output_tm;
0000227F    E77715                         	LJMP  ??_output_tm_main
;003671            }
                 ??_379_ELSE:
;003675            if (num_com == 57)
00002282    99391C                         	CMPB  _AL,#39h
00002285    D739                           	JNE   ??_383_ELSE
;003676            {
;003677                    if ((tm_2 & 0x40) != 0)
00002287    B30135021C                     	LDB   _AL,tm_2
0000228C    71401C                         	ANDB  _AL,#40h
0000228F    98001C                         	CMPB  _AL,0
00002292    DF16                           	JE    ??_384_ELSE
;003678                    {
;003679                            if (off_ta(27) != 0)
00002294    B11B1C                         	LDB   _AL,#1Bh
00002297    EF66DD                         	LCALL off_ta
0000229A    88001C                         	CMP   _AX,0
0000229D    DF0B                           	JE    ??_385_ELSE
;003680                            {
;003681                                    code_av = 61;
0000229F    B13D1C                         	LDB   _AL,#3Dh
000022A2    C70125011C                     	STB   _AL,code_av
;003682                                    goto output_tm;
000022A7    E74F15                         	LJMP  ??_output_tm_main
;003683                            }
                 ??_385_ELSE:
;003684                    }
                 ??_384_ELSE:
;003686                    if (on_ta(28) != 0)
000022AA    B11C1C                         	LDB   _AL,#1Ch
000022AD    EF50DD                         	LCALL on_ta
000022B0    88001C                         	CMP   _AX,0
000022B3    DF08                           	JE    ??_386_ELSE
;003687                    {
;003688                            code_av = 30;
000022B5    B11E1C                         	LDB   _AL,#1Eh
000022B8    C70125011C                     	STB   _AL,code_av
;003689                    }
                 ??_386_ELSE:
;003691                    goto output_tm;
000022BD    E73915                         	LJMP  ??_output_tm_main
;003692            }
                 ??_383_ELSE:
;003696            if (num_com == 58)
000022C0    993A1C                         	CMPB  _AL,#3Ah
000022C3    D743                           	JNE   ??_387_ELSE
;003697            {
;003698                    if ((tm_2 & 0x40) != 0)
000022C5    B30135021C                     	LDB   _AL,tm_2
000022CA    71401C                         	ANDB  _AL,#40h
000022CD    98001C                         	CMPB  _AL,0
000022D0    DF13                           	JE    ??_388_ELSE
;003699                    {
;003700                            if (off_ta(27) != 0)
000022D2    B11B1C                         	LDB   _AL,#1Bh
000022D5    EF28DD                         	LCALL off_ta
000022D8    88001C                         	CMP   _AX,0
000022DB    DF08                           	JE    ??_389_ELSE
;003701                            {
;003702                                    code_av = 61;
000022DD    B13D1C                         	LDB   _AL,#3Dh
000022E0    C70125011C                     	STB   _AL,code_av
;003703                            }
                 ??_389_ELSE:
;003704                    }
                 ??_388_ELSE:
;003706                    if ((tm_2 & 0x80) != 0)
000022E5    B30135021C                     	LDB   _AL,tm_2
000022EA    71801C                         	ANDB  _AL,#80h
000022ED    98001C                         	CMPB  _AL,0
000022F0    DF13                           	JE    ??_390_ELSE
;003707                    {
;003708                            if (off_ta(28) != 0)
000022F2    B11C1C                         	LDB   _AL,#1Ch
000022F5    EF08DD                         	LCALL off_ta
000022F8    88001C                         	CMP   _AX,0
000022FB    DF08                           	JE    ??_391_ELSE
;003709                            {
;003710                                    code_av = 62;
000022FD    B13E1C                         	LDB   _AL,#3Eh
00002300    C70125011C                     	STB   _AL,code_av
;003711                            }
                 ??_391_ELSE:
;003712                    }
                 ??_390_ELSE:
;003714                    goto output_tm;
00002305    E7F114                         	LJMP  ??_output_tm_main
;003715            }
                 ??_387_ELSE:
;003719            if (num_com == 59)
00002308    993B1C                         	CMPB  _AL,#3Bh
0000230B    D739                           	JNE   ??_392_ELSE
;003720            {
;003721                    if ((tm_4 & 0x80) != 0)
0000230D    B3013D021C                     	LDB   _AL,tm_4
00002312    71801C                         	ANDB  _AL,#80h
00002315    98001C                         	CMPB  _AL,0
00002318    DF16                           	JE    ??_393_ELSE
;003722                    {
;003723                            if (off_ta(16) != 0)
0000231A    B1101C                         	LDB   _AL,#10h
0000231D    EFE0DC                         	LCALL off_ta
00002320    88001C                         	CMP   _AX,0
00002323    DF0B                           	JE    ??_394_ELSE
;003724                            {
;003725                                    code_av = 64;
00002325    B1401C                         	LDB   _AL,#40h
00002328    C70125011C                     	STB   _AL,code_av
;003726                                    goto output_tm;
0000232D    E7C914                         	LJMP  ??_output_tm_main
;003727                            }
                 ??_394_ELSE:
;003728                    }
                 ??_393_ELSE:
;003730                    if (on_ta(15) != 0)
00002330    B10F1C                         	LDB   _AL,#0Fh
00002333    EFCADC                         	LCALL on_ta
00002336    88001C                         	CMP   _AX,0
00002339    DF08                           	JE    ??_395_ELSE
;003731                    {
;003732                            code_av = 31;
0000233B    B11F1C                         	LDB   _AL,#1Fh
0000233E    C70125011C                     	STB   _AL,code_av
;003733                    }
                 ??_395_ELSE:
;003735                    goto output_tm;
00002343    E7B314                         	LJMP  ??_output_tm_main
;003736            }
                 ??_392_ELSE:
;003740            if (num_com == 60)
00002346    993C1C                         	CMPB  _AL,#3Ch
00002349    D739                           	JNE   ??_396_ELSE
;003741            {
;003742                    if ((tm_4 & 0x40) != 0)
0000234B    B3013D021C                     	LDB   _AL,tm_4
00002350    71401C                         	ANDB  _AL,#40h
00002353    98001C                         	CMPB  _AL,0
00002356    DF16                           	JE    ??_397_ELSE
;003743                    {
;003744                            if (off_ta(15) != 0)
00002358    B10F1C                         	LDB   _AL,#0Fh
0000235B    EFA2DC                         	LCALL off_ta
0000235E    88001C                         	CMP   _AX,0
00002361    DF0B                           	JE    ??_398_ELSE
;003745                            {
;003746                                    code_av = 63;
00002363    B13F1C                         	LDB   _AL,#3Fh
00002366    C70125011C                     	STB   _AL,code_av
;003747                                    goto output_tm;
0000236B    E78B14                         	LJMP  ??_output_tm_main
;003748                            }
                 ??_398_ELSE:
;003749                    }
                 ??_397_ELSE:
;003751                    if (on_ta(16) != 0)
0000236E    B1101C                         	LDB   _AL,#10h
00002371    EF8CDC                         	LCALL on_ta
00002374    88001C                         	CMP   _AX,0
00002377    DF08                           	JE    ??_399_ELSE
;003752                    {
;003753                            code_av = 32;
00002379    B1201C                         	LDB   _AL,#20h
0000237C    C70125011C                     	STB   _AL,code_av
;003754                    }
                 ??_399_ELSE:
;003756                    goto output_tm;
00002381    E77514                         	LJMP  ??_output_tm_main
;003757            }
                 ??_396_ELSE:
;003761            if (num_com == 61)
00002384    993D1C                         	CMPB  _AL,#3Dh
00002387    D743                           	JNE   ??_400_ELSE
;003762            {
;003763                    if ((tm_4 & 0x40) != 0)
00002389    B3013D021C                     	LDB   _AL,tm_4
0000238E    71401C                         	ANDB  _AL,#40h
00002391    98001C                         	CMPB  _AL,0
00002394    DF13                           	JE    ??_401_ELSE
;003764                    {
;003765                            if (off_ta(15) != 0)
00002396    B10F1C                         	LDB   _AL,#0Fh
00002399    EF64DC                         	LCALL off_ta
0000239C    88001C                         	CMP   _AX,0
0000239F    DF08                           	JE    ??_402_ELSE
;003766                            {
;003767                                    code_av = 63;
000023A1    B13F1C                         	LDB   _AL,#3Fh
000023A4    C70125011C                     	STB   _AL,code_av
;003768                            }
                 ??_402_ELSE:
;003769                    }
                 ??_401_ELSE:
;003771                    if ((tm_4 & 0x80) != 0)
000023A9    B3013D021C                     	LDB   _AL,tm_4
000023AE    71801C                         	ANDB  _AL,#80h
000023B1    98001C                         	CMPB  _AL,0
000023B4    DF13                           	JE    ??_403_ELSE
;003772                    {
;003773                            if (off_ta(16) != 0)
000023B6    B1101C                         	LDB   _AL,#10h
000023B9    EF44DC                         	LCALL off_ta
000023BC    88001C                         	CMP   _AX,0
000023BF    DF08                           	JE    ??_404_ELSE
;003774                            {
;003775                                    code_av = 64;
000023C1    B1401C                         	LDB   _AL,#40h
000023C4    C70125011C                     	STB   _AL,code_av
;003776                            }
                 ??_404_ELSE:
;003777                    }
                 ??_403_ELSE:
;003779                    goto output_tm;
000023C9    E72D14                         	LJMP  ??_output_tm_main
;003780            }
                 ??_400_ELSE:
;003785            if (num_com == 62)
000023CC    993E1C                         	CMPB  _AL,#3Eh
000023CF    D739                           	JNE   ??_405_ELSE
;003786            {
;003788                    if ((tm_4 & 0x8) != 0)
000023D1    B3013D021C                     	LDB   _AL,tm_4
000023D6    71081C                         	ANDB  _AL,#08h
000023D9    98001C                         	CMPB  _AL,0
000023DC    DF16                           	JE    ??_406_ELSE
;003789                    {
;003790                            if (off_ta(30) != 0)
000023DE    B11E1C                         	LDB   _AL,#1Eh
000023E1    EF1CDC                         	LCALL off_ta
000023E4    88001C                         	CMP   _AX,0
000023E7    DF0B                           	JE    ??_407_ELSE
;003791                            {
;003792                                    code_av = 58;
000023E9    B13A1C                         	LDB   _AL,#3Ah
000023EC    C70125011C                     	STB   _AL,code_av
;003793                                    goto output_tm;
000023F1    E70514                         	LJMP  ??_output_tm_main
;003794                            }
                 ??_407_ELSE:
;003795                    }
                 ??_406_ELSE:
;003797                    if (on_ta(29) != 0)
000023F4    B11D1C                         	LDB   _AL,#1Dh
000023F7    EF06DC                         	LCALL on_ta
000023FA    88001C                         	CMP   _AX,0
000023FD    DF08                           	JE    ??_408_ELSE
;003798                    {
;003799                            code_av = 25;
000023FF    B1191C                         	LDB   _AL,#19h
00002402    C70125011C                     	STB   _AL,code_av
;003800                    }
                 ??_408_ELSE:
;003802                    goto output_tm;
00002407    E7EF13                         	LJMP  ??_output_tm_main
;003804            }
                 ??_405_ELSE:
;003808            if (num_com == 63)
0000240A    993F1C                         	CMPB  _AL,#3Fh
0000240D    D739                           	JNE   ??_409_ELSE
;003809            {
;003811                    if ((tm_4 & 0x4) != 0)
0000240F    B3013D021C                     	LDB   _AL,tm_4
00002414    71041C                         	ANDB  _AL,#04h
00002417    98001C                         	CMPB  _AL,0
0000241A    DF16                           	JE    ??_410_ELSE
;003812                    {
;003813                            if (off_ta(29) != 0)
0000241C    B11D1C                         	LDB   _AL,#1Dh
0000241F    EFDEDB                         	LCALL off_ta
00002422    88001C                         	CMP   _AX,0
00002425    DF0B                           	JE    ??_411_ELSE
;003814                            {
;003815                                    code_av = 57;
00002427    B1391C                         	LDB   _AL,#39h
0000242A    C70125011C                     	STB   _AL,code_av
;003817                                    goto output_tm;
0000242F    E7C713                         	LJMP  ??_output_tm_main
;003818                            }
                 ??_411_ELSE:
;003819                    }
                 ??_410_ELSE:
;003821                    if (on_ta(30) != 0)
00002432    B11E1C                         	LDB   _AL,#1Eh
00002435    EFC8DB                         	LCALL on_ta
00002438    88001C                         	CMP   _AX,0
0000243B    DF08                           	JE    ??_412_ELSE
;003822                    {
;003823                            code_av = 26;
0000243D    B11A1C                         	LDB   _AL,#1Ah
00002440    C70125011C                     	STB   _AL,code_av
;003824                    }
                 ??_412_ELSE:
;003826                    goto output_tm;
00002445    E7B113                         	LJMP  ??_output_tm_main
;003827            }
                 ??_409_ELSE:
;003831            if (num_com == 64)
00002448    99401C                         	CMPB  _AL,#40h
0000244B    D743                           	JNE   ??_413_ELSE
;003832            {
;003834                    if ((tm_4 & 0x4) != 0)
0000244D    B3013D021C                     	LDB   _AL,tm_4
00002452    71041C                         	ANDB  _AL,#04h
00002455    98001C                         	CMPB  _AL,0
00002458    DF13                           	JE    ??_414_ELSE
;003835                    {
;003836                            if (off_ta(29) != 0)
0000245A    B11D1C                         	LDB   _AL,#1Dh
0000245D    EFA0DB                         	LCALL off_ta
00002460    88001C                         	CMP   _AX,0
00002463    DF08                           	JE    ??_415_ELSE
;003837                            {
;003838                                    code_av = 57;
00002465    B1391C                         	LDB   _AL,#39h
00002468    C70125011C                     	STB   _AL,code_av
;003839                            }
                 ??_415_ELSE:
;003840                    }
                 ??_414_ELSE:
;003842                    if ((tm_4 & 0x8) != 0)
0000246D    B3013D021C                     	LDB   _AL,tm_4
00002472    71081C                         	ANDB  _AL,#08h
00002475    98001C                         	CMPB  _AL,0
00002478    DF13                           	JE    ??_416_ELSE
;003843                    {
;003844                            if (off_ta(30) != 0)
0000247A    B11E1C                         	LDB   _AL,#1Eh
0000247D    EF80DB                         	LCALL off_ta
00002480    88001C                         	CMP   _AX,0
00002483    DF08                           	JE    ??_417_ELSE
;003845                            {
;003846                                    code_av = 58;
00002485    B13A1C                         	LDB   _AL,#3Ah
00002488    C70125011C                     	STB   _AL,code_av
;003847                            }
                 ??_417_ELSE:
;003848                    }
                 ??_416_ELSE:
;003850                    goto output_tm;
0000248D    E76913                         	LJMP  ??_output_tm_main
;003851            }
                 ??_413_ELSE:
;003856            if (num_com == 65)
00002490    99411C                         	CMPB  _AL,#41h
00002493    D739                           	JNE   ??_418_ELSE
;003857            {
;003859                    if ((tm_4 & 0x20) != 0)
00002495    B3013D021C                     	LDB   _AL,tm_4
0000249A    71201C                         	ANDB  _AL,#20h
0000249D    98001C                         	CMPB  _AL,0
000024A0    DF16                           	JE    ??_419_ELSE
;003860                    {
;003861                            if (off_ta(32) != 0)
000024A2    B1201C                         	LDB   _AL,#20h
000024A5    EF58DB                         	LCALL off_ta
000024A8    88001C                         	CMP   _AX,0
000024AB    DF0B                           	JE    ??_420_ELSE
;003862                            {
;003863                                    code_av = 60;
000024AD    B13C1C                         	LDB   _AL,#3Ch
000024B0    C70125011C                     	STB   _AL,code_av
;003864                                    goto output_tm;
000024B5    E74113                         	LJMP  ??_output_tm_main
;003865                            }
                 ??_420_ELSE:
;003866                    }
                 ??_419_ELSE:
;003868                    if (on_ta(31) != 0)
000024B8    B11F1C                         	LDB   _AL,#1Fh
000024BB    EF42DB                         	LCALL on_ta
000024BE    88001C                         	CMP   _AX,0
000024C1    DF08                           	JE    ??_421_ELSE
;003869                    {
;003870                            code_av = 27;
000024C3    B11B1C                         	LDB   _AL,#1Bh
000024C6    C70125011C                     	STB   _AL,code_av
;003871                    }
                 ??_421_ELSE:
;003873                    goto output_tm;
000024CB    E72B13                         	LJMP  ??_output_tm_main
;003874            }
                 ??_418_ELSE:
;003879            if (num_com == 66)
000024CE    99421C                         	CMPB  _AL,#42h
000024D1    D739                           	JNE   ??_422_ELSE
;003880            {
;003882                    if ((tm_4 & 0x10) != 0)
000024D3    B3013D021C                     	LDB   _AL,tm_4
000024D8    71101C                         	ANDB  _AL,#10h
000024DB    98001C                         	CMPB  _AL,0
000024DE    DF16                           	JE    ??_423_ELSE
;003883                    {
;003884                            if (off_ta(31) != 0)
000024E0    B11F1C                         	LDB   _AL,#1Fh
000024E3    EF1ADB                         	LCALL off_ta
000024E6    88001C                         	CMP   _AX,0
000024E9    DF0B                           	JE    ??_424_ELSE
;003885                            {
;003886                                    code_av = 59;
000024EB    B13B1C                         	LDB   _AL,#3Bh
000024EE    C70125011C                     	STB   _AL,code_av
;003887                                    goto output_tm;
000024F3    E70313                         	LJMP  ??_output_tm_main
;003888                            }
                 ??_424_ELSE:
;003889                    }
                 ??_423_ELSE:
;003891                    if (on_ta(32) != 0)
000024F6    B1201C                         	LDB   _AL,#20h
000024F9    EF04DB                         	LCALL on_ta
000024FC    88001C                         	CMP   _AX,0
000024FF    DF08                           	JE    ??_425_ELSE
;003892                    {
;003893                            code_av = 28;
00002501    B11C1C                         	LDB   _AL,#1Ch
00002504    C70125011C                     	STB   _AL,code_av
;003894                    }
                 ??_425_ELSE:
;003896                    goto output_tm;
00002509    E7ED12                         	LJMP  ??_output_tm_main
;003897            }
                 ??_422_ELSE:
;003902            if (num_com == 67)
0000250C    99431C                         	CMPB  _AL,#43h
0000250F    D743                           	JNE   ??_426_ELSE
;003903            {
;003904                    if ((tm_4 & 0x10) != 0)
00002511    B3013D021C                     	LDB   _AL,tm_4
00002516    71101C                         	ANDB  _AL,#10h
00002519    98001C                         	CMPB  _AL,0
0000251C    DF13                           	JE    ??_427_ELSE
;003905                    {
;003906                            if (off_ta(31) != 0)
0000251E    B11F1C                         	LDB   _AL,#1Fh
00002521    EFDCDA                         	LCALL off_ta
00002524    88001C                         	CMP   _AX,0
00002527    DF08                           	JE    ??_428_ELSE
;003907                            {
;003908                                    code_av = 59;
00002529    B13B1C                         	LDB   _AL,#3Bh
0000252C    C70125011C                     	STB   _AL,code_av
;003909                            }
                 ??_428_ELSE:
;003910                    }
                 ??_427_ELSE:
;003912                    if ((tm_4 & 0x20) != 0)
00002531    B3013D021C                     	LDB   _AL,tm_4
00002536    71201C                         	ANDB  _AL,#20h
00002539    98001C                         	CMPB  _AL,0
0000253C    DF13                           	JE    ??_429_ELSE
;003913                    {
;003914                            if (off_ta(32) != 0)
0000253E    B1201C                         	LDB   _AL,#20h
00002541    EFBCDA                         	LCALL off_ta
00002544    88001C                         	CMP   _AX,0
00002547    DF08                           	JE    ??_430_ELSE
;003915                            {
;003916                                    code_av = 60;
00002549    B13C1C                         	LDB   _AL,#3Ch
0000254C    C70125011C                     	STB   _AL,code_av
;003917                            }
                 ??_430_ELSE:
;003918                    }
                 ??_429_ELSE:
;003920                    goto output_tm;
00002551    E7A512                         	LJMP  ??_output_tm_main
;003921            }
                 ??_426_ELSE:
;003926            if (num_com == 68)
00002554    99441C                         	CMPB  _AL,#44h
00002557    D748                           	JNE   ??_431_ELSE
;003927            {
;003929                    alg = 0;
00002559    C701F00000                     	STB   00h,alg
;003932                    vent_max = 26;
0000255E    B11A1C                         	LDB   _AL,#1Ah
00002561    C70114001C                     	STB   _AL,vent_max
;003935                    vent_min = 20;
00002566    B1141C                         	LDB   _AL,#14h
00002569    C70115001C                     	STB   _AL,vent_min
;003938                    nagr_g = 18;
0000256E    B1121C                         	LDB   _AL,#12h
00002571    C7010B001C                     	STB   _AL,nagr_g
;003941                    nagr_h = 19;
00002576    B1131C                         	LDB   _AL,#13h
00002579    C7010C001C                     	STB   _AL,nagr_h
;003944                    nagr_off = 24;
0000257E    B1181C                         	LDB   _AL,#18h
00002581    C7010D001C                     	STB   _AL,nagr_off
;003948                    GR26_27 = 0;
00002586    C701EC0000                     	STB   00h,GR26_27
;003949                    GR20_19 = 0;
0000258B    C701E80000                     	STB   00h,GR20_19
;003950                    GR19_18 = 0;
00002590    C701E70000                     	STB   00h,GR19_18
;003951                    GR18_17 = 0;
00002595    C701E60000                     	STB   00h,GR18_17
;003952                    GR24_25 = 0;
0000259A    C701EB0000                     	STB   00h,GR24_25
;003954                    goto sensor;
0000259F    2124                           	SJMP  ??_sensor_main
;003955            }
                 ??_431_ELSE:
;003958            if (num_com == 69)
000025A1    99451C                         	CMPB  _AL,#45h
000025A4    D74B                           	JNE   ??_432_ELSE
;003959            {
;003961                    alg = 1;
000025A6    B1011C                         	LDB   _AL,#01h
000025A9    C701F0001C                     	STB   _AL,alg
;003964                    vent_max = 27;
000025AE    B11B1C                         	LDB   _AL,#1Bh
000025B1    C70114001C                     	STB   _AL,vent_max
;003967                    vent_min = 19;
000025B6    B1131C                         	LDB   _AL,#13h
000025B9    C70115001C                     	STB   _AL,vent_min
;003970                    nagr_g = 17;
000025BE    B1111C                         	LDB   _AL,#11h
000025C1    C7010B001C                     	STB   _AL,nagr_g
;003973                    nagr_h = 18;
000025C6    B1121C                         	LDB   _AL,#12h
000025C9    C7010C001C                     	STB   _AL,nagr_h
;003976                    nagr_off = 25;
000025CE    B1191C                         	LDB   _AL,#19h
000025D1    C7010D001C                     	STB   _AL,nagr_off
;003980                    GR26_27 = 0;
000025D6    C701EC0000                     	STB   00h,GR26_27
;003981                    GR20_19 = 0;
000025DB    C701E80000                     	STB   00h,GR20_19
;003982                    GR19_18 = 0;
000025E0    C701E70000                     	STB   00h,GR19_18
;003983                    GR18_17 = 0;
000025E5    C701E60000                     	STB   00h,GR18_17
;003984                    GR24_25 = 0;
000025EA    C701EB0000                     	STB   00h,GR24_25
;003986                    goto sensor;
000025EF    20D4                           	SJMP  ??_sensor_main
;003987            }
                 ??_432_ELSE:
;003991            if ((num_com >= 81) && (num_com <=84))
000025F1    99511C                         	CMPB  _AL,#51h
000025F4    D30D                           	JNC   ??_433_ELSE
000025F6    99551C                         	CMPB  _AL,#55h
000025F9    DB08                           	JC    ??_433_ELSE
;003992            {
;003993                    count_otk_g = num_com - 80;
000025FB    75B01C                         	ADDB  _AL,#0B0h
000025FE    C7012A011C                     	STB   _AL,count_otk_g
;003994            }
                 ??_433_ELSE:
;003997            if ((num_com >= 85) && (num_com <=88))
00002603    B3010E001C                     	LDB   _AL,num_com
00002608    99551C                         	CMPB  _AL,#55h
0000260B    D30D                           	JNC   ??_435_ELSE
0000260D    99591C                         	CMPB  _AL,#59h
00002610    DB08                           	JC    ??_435_ELSE
;003998            {
;003999                    count_otk_h = num_com - 84;
00002612    75AC1C                         	ADDB  _AL,#0ACh
00002615    C7012B011C                     	STB   _AL,count_otk_h
;004000            }
                 ??_435_ELSE:
;004004            if ((num_com >= 89) && (num_com<=92))
0000261A    B3010E001C                     	LDB   _AL,num_com
0000261F    99591C                         	CMPB  _AL,#59h
00002622    D316                           	JNC   ??_437_ELSE
00002624    995D1C                         	CMPB  _AL,#5Dh
00002627    DB11                           	JC    ??_437_ELSE
;004005            {
;004006                    g_fix = 0x3 << (2 * (num_com - 89));
00002629    19011C                         	SHLB  _AL,#01h
0000262C    754E1C                         	ADDB  _AL,#4Eh
0000262F    B1031D                         	LDB   _AH,#03h
00002632    191C1D                         	SHLB  _AH,_AL
00002635    C7014E011D                     	STB   _AH,g_fix
;004007            }
                 ??_437_ELSE:
;004010            if ((num_com >= 93) && (num_com<=96))
0000263A    B3010E001C                     	LDB   _AL,num_com
0000263F    995D1C                         	CMPB  _AL,#5Dh
00002642    D316                           	JNC   ??_439_ELSE
00002644    99611C                         	CMPB  _AL,#61h
00002647    DB11                           	JC    ??_439_ELSE
;004011            {
;004012                    h_fix = 0x3 << (2 * (num_com - 93));
00002649    19011C                         	SHLB  _AL,#01h
0000264C    75461C                         	ADDB  _AL,#46h
0000264F    B1031D                         	LDB   _AH,#03h
00002652    191C1D                         	SHLB  _AH,_AL
00002655    C70152011D                     	STB   _AH,h_fix
;004013            }
                 ??_439_ELSE:
          ??_otkl_ta_gh_main:
;004021            if (command_vent != 0)
0000265A    B30127011C                     	LDB   _AL,command_vent
0000265F    98001C                         	CMPB  _AL,0
00002662    DF61                           	JE    ??_441_ELSE
;004022            {
;004026                    if ((tim_25_t == 0) && (tim_25_otk == 0))
00002664    B30130021C                     	LDB   _AL,tim_25_t
00002669    98001C                         	CMPB  _AL,0
0000266C    D757                           	JNE   ??_442_ELSE
0000266E    B3012F021C                     	LDB   _AL,tim_25_otk
00002673    98001C                         	CMPB  _AL,0
00002676    D74D                           	JNE   ??_442_ELSE
;004027                    {
;004030                            command_vent = 0;
00002678    C701270100                     	STB   00h,command_vent
;004034                            if ((tm_data_5 != 0) && (vent_gh == 1))
0000267D    B30144021C                     	LDB   _AL,tm_data_5
00002682    98001C                         	CMPB  _AL,0
00002685    DF0D                           	JE    ??_444_ELSE
00002687    B3014B021C                     	LDB   _AL,vent_gh
0000268C    99011C                         	CMPB  _AL,#01h
0000268F    D703                           	JNE   ??_444_ELSE
;004035                            {
;004036                                    otkl_kontur_g();
00002691    EF6CD9                         	LCALL otkl_kontur_g
;004037                            }
                 ??_444_ELSE:
;004041                            if ((tm_data_6 != 0) && (vent_gh == 0))
00002694    B30145021C                     	LDB   _AL,tm_data_6
00002699    98001C                         	CMPB  _AL,0
0000269C    DF0D                           	JE    ??_446_ELSE
0000269E    B3014B021C                     	LDB   _AL,vent_gh
000026A3    98001C                         	CMPB  _AL,0
000026A6    D703                           	JNE   ??_446_ELSE
;004042                            {
;004043                                    otkl_kontur_h();
000026A8    EF55D9                         	LCALL otkl_kontur_h
;004044                            }
                 ??_446_ELSE:
;004047                            tim_25 = 1;
000026AB    B1011C                         	LDB   _AL,#01h
000026AE    C7012E021C                     	STB   _AL,tim_25
;004048                            count_tim_25 = 0;
000026B3    C3018C0000                     	ST    00h,count_tim_25
;004049                            finish_25 = 0;
000026B8    C701480100                     	STB   00h,finish_25
;004052                            ta_vozd = 255;
000026BD    B1FF1C                         	LDB   _AL,#0FFh
000026C0    C7012D021C                     	STB   _AL,ta_vozd
;004053                    }
                 ??_442_ELSE:
;004054            }
                 ??_441_ELSE:
              ??_sensor_main:
;004061            PMLC_select_device(NOM_PDEV, PDEV_0, &PMLC_TASK);
000026C5    111C                           	CLRB  _AL
000026C7    111D                           	CLRB  _AH
000026C9    A100001E                       	LD    _BX,#PMLC_TASK
000026CD    EF30D9                         	LCALL PMLC_select_device
;004065            __NOP();
000026D0    FD                             	NOP   
;004072           adc_contr = read_adc_control(14) * 5.0 * 1.012/ 4096 + 0.005;
000026D1    B10E1C                         	LDB   _AL,#0Eh
000026D4    EF29D9                         	LCALL read_adc_control
000026D7    EF26D9                         	LCALL ??FPCONV16U
000026DA    AD0020                         	LDBZE _CX,#00h
000026DD    A1A04022                       	LD    _DX,#40A0h
000026E1    EF1CD9                         	LCALL ??FPMUL
000026E4    A1378920                       	LD    _CX,#8937h
000026E8    A1813F22                       	LD    _DX,#3F81h
000026EC    EF11D9                         	LCALL ??FPMUL
000026EF    AD0020                         	LDBZE _CX,#00h
000026F2    A1804522                       	LD    _DX,#4580h
000026F6    EF07D9                         	LCALL ??FPDIV
000026F9    A10AD720                       	LD    _CX,#0D70Ah
000026FD    A1A33B22                       	LD    _DX,#3BA3h
00002701    EFFCD8                         	LCALL ??FPADD
00002704    C30100001C                     	ST    _AX,adc_contr
00002709    C30102001E                     	ST    _BX,(adc_contr+2)
;004076           if ((adc_contr < 1.1) || (adc_contr > 1.4))
0000270E    A1CDCC20                       	LD    _CX,#0CCCDh
00002712    A18C3F22                       	LD    _DX,#3F8Ch
00002716    EFE7D8                         	LCALL ??FPCMP
00002719    DE17                           	JLT   ??_448_IF
0000271B    A30100001C                     	LD    _AX,adc_contr
00002720    A30102001E                     	LD    _BX,(adc_contr+2)
00002725    A1333320                       	LD    _CX,#3333h
00002729    A1B33F22                       	LD    _DX,#3FB3h
0000272D    EFD0D8                         	LCALL ??FPCMP
00002730    DA1C                           	JLE   ??_448_ELSE
                   ??_448_IF:
;004077           {
;004078                    if (zap_av149 == 0)
00002732    B3014D021C                     	LDB   _AL,zap_av149
00002737    98001C                         	CMPB  _AL,0
0000273A    D717                           	JNE   ??_448_END
;004079                    {
;004080                            zap_av149 = 1;
0000273C    B1011C                         	LDB   _AL,#01h
0000273F    C7014D021C                     	STB   _AL,zap_av149
;004082                            code_av = 149;
00002744    B1951C                         	LDB   _AL,#95h
00002747    C70125011C                     	STB   _AL,code_av
;004083                    }
;004084           }
0000274C    2005                           	SJMP  ??_448_END
                 ??_448_ELSE:
;004086           {
;004087                    zap_av149 = 0;
0000274E    C7014D0200                     	STB   00h,zap_av149
;004088           }
                  ??_448_END:
;004094            adc_contr = read_adc_control(15) * 5.0 * 1.012/ 4096 + 0.005;
00002753    B10F1C                         	LDB   _AL,#0Fh
00002756    EFA7D8                         	LCALL read_adc_control
00002759    EFA4D8                         	LCALL ??FPCONV16U
0000275C    AD0020                         	LDBZE _CX,#00h
0000275F    A1A04022                       	LD    _DX,#40A0h
00002763    EF9AD8                         	LCALL ??FPMUL
00002766    A1378920                       	LD    _CX,#8937h
0000276A    A1813F22                       	LD    _DX,#3F81h
0000276E    EF8FD8                         	LCALL ??FPMUL
00002771    AD0020                         	LDBZE _CX,#00h
00002774    A1804522                       	LD    _DX,#4580h
00002778    EF85D8                         	LCALL ??FPDIV
0000277B    A10AD720                       	LD    _CX,#0D70Ah
0000277F    A1A33B22                       	LD    _DX,#3BA3h
00002783    EF7AD8                         	LCALL ??FPADD
00002786    C30100001C                     	ST    _AX,adc_contr
0000278B    C30102001E                     	ST    _BX,(adc_contr+2)
;004098           if ((adc_contr < 1.1) || (adc_contr > 1.4))
00002790    A1CDCC20                       	LD    _CX,#0CCCDh
00002794    A18C3F22                       	LD    _DX,#3F8Ch
00002798    EF65D8                         	LCALL ??FPCMP
0000279B    DE17                           	JLT   ??_451_IF
0000279D    A30100001C                     	LD    _AX,adc_contr
000027A2    A30102001E                     	LD    _BX,(adc_contr+2)
000027A7    A1333320                       	LD    _CX,#3333h
000027AB    A1B33F22                       	LD    _DX,#3FB3h
000027AF    EF4ED8                         	LCALL ??FPCMP
000027B2    DA1C                           	JLE   ??_451_ELSE
                   ??_451_IF:
;004099           {
;004100                    if (zap_av150 == 0)
000027B4    B3014E021C                     	LDB   _AL,zap_av150
000027B9    98001C                         	CMPB  _AL,0
000027BC    D717                           	JNE   ??_451_END
;004101                    {
;004102                            zap_av150 = 1;
000027BE    B1011C                         	LDB   _AL,#01h
000027C1    C7014E021C                     	STB   _AL,zap_av150
;004104                            code_av = 150;
000027C6    B1961C                         	LDB   _AL,#96h
000027C9    C70125011C                     	STB   _AL,code_av
;004105                    }
;004106           }
000027CE    2005                           	SJMP  ??_451_END
                 ??_451_ELSE:
;004108           {
;004109                    zap_av150 = 0;
000027D0    C7014E0200                     	STB   00h,zap_av150
;004110           }
                  ??_451_END:
;004114            i = 0;
000027D5    0124                           	CLR   i?main
;004116            while (i <= 11)
000027D7    2207                           	SJMP  ??_454_CONTINUE
                   ??_454_DO:
;004117            {
;004119                    if ((i == 5) || (i == 10))
000027D9    89050024                       	CMP   i?main,#0005h
000027DD    DF06                           	JE    ??_455_IF
000027DF    890A0024                       	CMP   i?main,#000Ah
000027E3    D715                           	JNE   ??_455_ELSE
                   ??_455_IF:
;004120                    {
;004121                            status_uart = SP_STAT0;
000027E5    C701280200                     	STB   SP_STAT0,status_uart
;004123                            if ((status_uart & 0x40) != 0)
000027EA    B30128021C                     	LDB   _AL,status_uart
000027EF    71401C                         	ANDB  _AL,#40h
000027F2    98001C                         	CMPB  _AL,0
;004124                            {
;004125                                    goto Yes_uart_data;
000027F5    DF03                           	JE    ??_Yes_uart_data_main_BYPASS_27F5
000027F7    E768E8                         	LJMP  ??_Yes_uart_data_main
??_Yes_uart_data_main_BYPASS_27F5:
;004126                            }
;004127                    }
                 ??_455_ELSE:
;004131                    new_data_td = read_adc(i);
000027FA    B0241C                         	LDB   _AL,i?main
000027FD    EF00D8                         	LCALL read_adc
00002800    011E                           	CLR   _BX
00002802    C30108001C                     	ST    _AX,new_data_td
00002807    C3010A001E                     	ST    _BX,(new_data_td+2)
;004137                    u_td[i] = new_data_td * 5.0 * 1.012/ 4096 + 0.005;
0000280C    A02426                         	LD    _FX,i?main
0000280F    090226                         	SHL   _FX,#02h
00002812    EFEBD7                         	LCALL ??FPCONV32U
00002815    AD0020                         	LDBZE _CX,#00h
00002818    A1A04022                       	LD    _DX,#40A0h
0000281C    EFE1D7                         	LCALL ??FPMUL
0000281F    A1378920                       	LD    _CX,#8937h
00002823    A1813F22                       	LD    _DX,#3F81h
00002827    EFD6D7                         	LCALL ??FPMUL
0000282A    AD0020                         	LDBZE _CX,#00h
0000282D    A1804522                       	LD    _DX,#4580h
00002831    EFCCD7                         	LCALL ??FPDIV
00002834    A10AD720                       	LD    _CX,#0D70Ah
00002838    A1A33B22                       	LD    _DX,#3BA3h
0000283C    EFC1D7                         	LCALL ??FPADD
0000283F    C32744001C                     	ST    _AX,u_td[_FX]
00002844    C32746001E                     	ST    _BX,(u_td+2)[_FX]
;004143                    p4 = u_td[i];
00002849    A02420                         	LD    _CX,i?main
0000284C    090220                         	SHL   _CX,#02h
0000284F    A32144001C                     	LD    _AX,u_td[_CX]
00002854    A32146001E                     	LD    _BX,(u_td+2)[_CX]
00002859    C318001C                       	ST    _AX,p4?main[_SP]
0000285D    C318021E                       	ST    _BX,(p4?main+2)[_SP]
;004147                    t_temp = 0;
00002861    AD0028                         	LDBZE t_temp?main,#00h
00002864    AD002A                         	LDBZE (t_temp?main+2),#00h
;004149                    ti = 0;
00002867    0126                           	CLR   ti?main
;004153                    if (p4 > 3.515)
00002869    A1C3F520                       	LD    _CX,#0F5C3h
0000286D    A1604022                       	LD    _DX,#4060h
00002871    EF8CD7                         	LCALL ??FPCMP
00002874    DA5C                           	JLE   ??_458_ELSE
;004154                    {
;004156                            while (ti < 29)
00002876    2052                           	SJMP  ??_459_CONTINUE
                   ??_459_DO:
;004157                            {
;004158                                    ti = ti + 1;
00002878    0726                           	INC   ti?main
;004160                                    if (p4 <= table_u[29-ti])
0000287A    AD1D28                         	LDBZE _GX,#1Dh
0000287D    682628                         	SUB   _GX,ti?main
00002880    090228                         	SHL   _GX,#02h
00002883    A318001C                       	LD    _AX,p4?main[_SP]
00002887    A318021E                       	LD    _BX,(p4?main+2)[_SP]
0000288B    A329000020                     	LD    _CX,table_u[_GX]
00002890    A329020022                     	LD    _DX,(table_u+2)[_GX]
00002895    EF68D7                         	LCALL ??FPCMP
00002898    D224                           	JGT   ??_460_ELSE
;004161                                    {
;004162                                            t_temp = -ti * 0.5;
0000289A    A0261C                         	LD    _AX,ti?main
0000289D    031C                           	NEG   _AX
0000289F    EF5ED7                         	LCALL ??FPCONV16
000028A2    0120                           	CLR   _CX
000028A4    A1003F22                       	LD    _DX,#3F00h
000028A8    EF55D7                         	LCALL ??FPMUL
000028AB    A01C28                         	LD    t_temp?main,_AX
000028AE    A01E2A                         	LD    (t_temp?main+2),_BX
;004163                                            cod_td[i] = 30 - ti;
000028B1    B11E1C                         	LDB   _AL,#1Eh
000028B4    78261C                         	SUBB  _AL,ti?main
000028B7    C72518011C                     	STB   _AL,cod_td[i?main]
;004165                                            goto save_t;
000028BC    20DA                           	SJMP  ??_save_t_main
;004166                                    }
                 ??_460_ELSE:
;004168                                    t_temp = - 15;
000028BE    AD0028                         	LDBZE t_temp?main,#00h
000028C1    A170C12A                       	LD    (t_temp?main+2),#0C170h
;004169                                    cod_td[i] =  0;
000028C5    C725180100                     	STB   00h,cod_td[i?main]
;004171                            }
             ??_459_CONTINUE:
000028CA    891D0026                       	CMP   ti?main,#001Dh
000028CE    DEA8                           	JLT   ??_459_DO
;004173                            goto save_t;
000028D0    20C6                           	SJMP  ??_save_t_main
;004175                    }
                 ??_458_ELSE:
;004177                    {
;004180                            if (p4 <= 2.98)
000028D2    A318001C                       	LD    _AX,p4?main[_SP]
000028D6    A318021E                       	LD    _BX,(p4?main+2)[_SP]
000028DA    A152B820                       	LD    _CX,#0B852h
000028DE    A13E4022                       	LD    _DX,#403Eh
000028E2    EF1BD7                         	LCALL ??FPCMP
000028E5    D203                           	JGT   ??_461_ELSE
;004181                            {
;004182                                    ti = 30;
000028E7    AD1E26                         	LDBZE ti?main,#1Eh
;004183                            }
                 ??_461_ELSE:
;004185                            if (p4 <= 2.395)
000028EA    A318001C                       	LD    _AX,p4?main[_SP]
000028EE    A318021E                       	LD    _BX,(p4?main+2)[_SP]
000028F2    A1AE4720                       	LD    _CX,#47AEh
000028F6    A1194022                       	LD    _DX,#4019h
000028FA    EF03D7                         	LCALL ??FPCMP
000028FD    D203                           	JGT   ??_462_ELSE
;004186                            {
;004187                                    ti = 60;
000028FF    AD3C26                         	LDBZE ti?main,#3Ch
;004188                            }
                 ??_462_ELSE:
;004190                            if (p4 <= 1.734)
00002902    A318001C                       	LD    _AX,p4?main[_SP]
00002906    A318021E                       	LD    _BX,(p4?main+2)[_SP]
0000290A    A1B6F320                       	LD    _CX,#0F3B6h
0000290E    A1DD3F22                       	LD    _DX,#3FDDh
00002912    EFEBD6                         	LCALL ??FPCMP
00002915    D203                           	JGT   ??_463_ELSE
;004191                            {
;004192                                    ti = 90;
00002917    AD5A26                         	LDBZE ti?main,#5Ah
;004193                            }
                 ??_463_ELSE:
;004195                            if (p4 <= 1.063)
0000291A    A318001C                       	LD    _AX,p4?main[_SP]
0000291E    A318021E                       	LD    _BX,(p4?main+2)[_SP]
00002922    A1621020                       	LD    _CX,#1062h
00002926    A1883F22                       	LD    _DX,#3F88h
0000292A    EFD3D6                         	LCALL ??FPCMP
0000292D    D203                           	JGT   ??_464_ELSE
;004196                            {
;004197                                    ti = 120;
0000292F    AD7826                         	LDBZE ti?main,#78h
;004198                            }
                 ??_464_ELSE:
;004200                            if (p4 <= 0.394)
00002932    A318001C                       	LD    _AX,p4?main[_SP]
00002936    A318021E                       	LD    _BX,(p4?main+2)[_SP]
0000293A    A15EBA20                       	LD    _CX,#0BA5Eh
0000293E    A1C93E22                       	LD    _DX,#3EC9h
00002942    EFBBD6                         	LCALL ??FPCMP
00002945    D224                           	JGT   ??_466_CONTINUE
;004201                            {
;004202                                    ti = 150;
00002947    AD9626                         	LDBZE ti?main,#96h
;004203                            }
;004206                            while (ti < 169)
0000294A    201F                           	SJMP  ??_466_CONTINUE
                   ??_466_DO:
;004207                            {
;004208                                    ti = ti + 1;
0000294C    0726                           	INC   ti?main
;004210                                    if (p4 > table_u[29+ti])
0000294E    A02628                         	LD    _GX,ti?main
00002951    090228                         	SHL   _GX,#02h
00002954    A318001C                       	LD    _AX,p4?main[_SP]
00002958    A318021E                       	LD    _BX,(p4?main+2)[_SP]
0000295C    A329740020                     	LD    _CX,(table_u+116)[_GX]
00002961    A329760022                     	LD    _DX,(table_u+118)[_GX]
00002966    EF97D6                         	LCALL ??FPCMP
;004211                                    {
;004212                                            goto determ_t;
00002969    D206                           	JGT   ??_determ_t_main
;004214                                    }
;004215                            }
             ??_466_CONTINUE:
0000296B    89A90026                       	CMP   ti?main,#00A9h
0000296F    DEDB                           	JLT   ??_466_DO
            ??_determ_t_main:
;004219                            cod_td[i] =  29 + ti;
00002971    551D261C                       	ADDB  _AL,ti?main,#1Dh
00002975    C72518011C                     	STB   _AL,cod_td[i?main]
;004220                            t_temp = 0.25 * (ti-1);
0000297A    A0261C                         	LD    _AX,ti?main
0000297D    EF80D6                         	LCALL ??FPCONV16
00002980    0120                           	CLR   _CX
00002982    A1803E22                       	LD    _DX,#3E80h
00002986    EF77D6                         	LCALL ??FPMUL
00002989    0120                           	CLR   _CX
0000298B    A1803E22                       	LD    _DX,#3E80h
0000298F    EF6ED6                         	LCALL ??FPSUB
00002992    A01C28                         	LD    t_temp?main,_AX
00002995    A01E2A                         	LD    (t_temp?main+2),_BX
;004221                    }
              ??_save_t_main:
;004225                    t_td[i] = t_temp;
00002998    A0241C                         	LD    _AX,i?main
0000299B    09021C                         	SHL   _AX,#02h
0000299E    C31D100028                     	ST    t_temp?main,t_td[_AX]
000029A3    C31D12002A                     	ST    (t_temp?main+2),(t_td+2)[_AX]
;004230                    if ((t_temp > 41) || (p4 > 4.33))
000029A8    A0281C                         	LD    _AX,t_temp?main
000029AB    A02A1E                         	LD    _BX,(t_temp?main+2)
000029AE    AD0020                         	LDBZE _CX,#00h
000029B1    A1244222                       	LD    _DX,#4224h
000029B5    EF48D6                         	LCALL ??FPCMP
000029B8    D215                           	JGT   ??_468_IF
000029BA    A318001C                       	LD    _AX,p4?main[_SP]
000029BE    A318021E                       	LD    _BX,(p4?main+2)[_SP]
000029C2    A15C8F20                       	LD    _CX,#8F5Ch
000029C6    A18A4022                       	LD    _DX,#408Ah
000029CA    EF33D6                         	LCALL ??FPCMP
000029CD    DA0A                           	JLE   ??_468_ELSE
                   ??_468_IF:
;004231                    {
;004232                            bums_td[i] = 255;
000029CF    B1FF1C                         	LDB   _AL,#0FFh
000029D2    C72507011C                     	STB   _AL,bums_td[i?main]
;004233                    }
000029D7    2005                           	SJMP  ??_468_END
                 ??_468_ELSE:
;004235                    {
;004236                            bums_td[i] = 0;
000029D9    C725070100                     	STB   00h,bums_td[i?main]
;004237                    }
                  ??_468_END:
;004239                    i = i + 1;
000029DE    0724                           	INC   i?main
;004240            }
             ??_454_CONTINUE:
000029E0    890C0024                       	CMP   i?main,#000Ch
000029E4    D602                           	JGE   ??_454_DO_BYPASS_29E4
000029E6    25F1                           	SJMP  ??_454_DO
       ??_454_DO_BYPASS_29E4:
;004247            for (d=0; d < 12; d++)
000029E8    0124                           	CLR   d?main
000029EA    21F5                           	SJMP  ??_470_CHECK
                 ??_470_LOOP:
;004248            {
;004250                    dig_td[0][d] = mas_num_td[d];
000029EC    B32520031C                     	LDB   _AL,mas_num_td[d?main]
000029F1    C7252E011C                     	STB   _AL,dig_td[d?main]
;004252                    t1 = t_td[d];
000029F6    A0241C                         	LD    _AX,d?main
000029F9    09021C                         	SHL   _AX,#02h
000029FC    A31D100020                     	LD    _CX,t_td[_AX]
00002A01    A31D120022                     	LD    _DX,(t_td+2)[_AX]
00002A06    C3010C0020                     	ST    _CX,t1
00002A0B    C3010E0022                     	ST    _DX,(t1+2)
;004254                    if (t1 < 0)
00002A10    A3010C001C                     	LD    _AX,t1
00002A15    A3010E001E                     	LD    _BX,(t1+2)
00002A1A    AD0020                         	LDBZE _CX,#00h
00002A1D    AD0022                         	LDBZE _DX,#00h
00002A20    EFDDD5                         	LCALL ??FPCMP
00002A23    D66E                           	JGE   ??_471_ELSE
;004255                    {
;004256                            t1 = fabs(t1);
00002A25    A3010C001C                     	LD    _AX,t1
00002A2A    A3010E001E                     	LD    _BX,(t1+2)
00002A2F    EFCED5                         	LCALL fabs
00002A32    C3010C001C                     	ST    _AX,t1
00002A37    C3010E001E                     	ST    _BX,(t1+2)
;004258                            t = t1;
00002A3C    EFC1D5                         	LCALL ??FPTRUNC
00002A3F    C70129021C                     	STB   _AL,t
;004260                            t = t & 0x3F;
00002A44    713F1C                         	ANDB  _AL,#3Fh
00002A47    C70129021C                     	STB   _AL,t
;004262                            if ((t1-t) == 0)
00002A4C    EFB1D5                         	LCALL ??FPCONV8U
00002A4F    A01C20                         	LD    _CX,_AX
00002A52    A01E22                         	LD    _DX,_BX
00002A55    A3010C001C                     	LD    _AX,t1
00002A5A    A3010E001E                     	LD    _BX,(t1+2)
00002A5F    EF9ED5                         	LCALL ??FPSUB
00002A62    AD0020                         	LDBZE _CX,#00h
00002A65    AD0022                         	LDBZE _DX,#00h
00002A68    EF95D5                         	LCALL ??FPCMP
00002A6B    D70F                           	JNE   ??_472_ELSE
;004263                            {
;004264                                    t = t << 2;
00002A6D    B30129021C                     	LDB   _AL,t
00002A72    19021C                         	SHLB  _AL,#02h
00002A75    C70129021C                     	STB   _AL,t
;004265                            }
00002A7A    211E                           	SJMP  ??_471_END
                 ??_472_ELSE:
;004267                            {
;004268                                    t = t << 2;
00002A7C    B30129021C                     	LDB   _AL,t
00002A81    19021C                         	SHLB  _AL,#02h
00002A84    C70129021C                     	STB   _AL,t
;004269                                    t = t + 2;
00002A89    75021C                         	ADDB  _AL,#02h
00002A8C    C70129021C                     	STB   _AL,t
;004270                            }                                              }
00002A91    2107                           	SJMP  ??_471_END
                 ??_471_ELSE:
;004272                    {
;004273                            t = t1;
00002A93    A3010C001C                     	LD    _AX,t1
00002A98    A3010E001E                     	LD    _BX,(t1+2)
00002A9D    EF60D5                         	LCALL ??FPTRUNC
00002AA0    C70129021C                     	STB   _AL,t
;004274                            t = t & 0x3F;
00002AA5    713F1C                         	ANDB  _AL,#3Fh
00002AA8    C70129021C                     	STB   _AL,t
;004276                            if ((t1 - t) == 0)
00002AAD    EF50D5                         	LCALL ??FPCONV8U
00002AB0    A01C20                         	LD    _CX,_AX
00002AB3    A01E22                         	LD    _DX,_BX
00002AB6    A3010C001C                     	LD    _AX,t1
00002ABB    A3010E001E                     	LD    _BX,(t1+2)
00002AC0    EF3DD5                         	LCALL ??FPSUB
00002AC3    AD0020                         	LDBZE _CX,#00h
00002AC6    AD0022                         	LDBZE _DX,#00h
00002AC9    EF34D5                         	LCALL ??FPCMP
00002ACC    D70D                           	JNE   ??_473_ELSE
;004277                            {
;004278                                    t = t << 2;
00002ACE    B30129021C                     	LDB   _AL,t
00002AD3    19021C                         	SHLB  _AL,#02h
00002AD6    C70129021C                     	STB   _AL,t
;004279                            }
                 ??_473_ELSE:
;004281                            if ((t1 - t) == 0.25)
00002ADB    B30129021C                     	LDB   _AL,t
00002AE0    EF1DD5                         	LCALL ??FPCONV8U
00002AE3    A01C20                         	LD    _CX,_AX
00002AE6    A01E22                         	LD    _DX,_BX
00002AE9    A3010C001C                     	LD    _AX,t1
00002AEE    A3010E001E                     	LD    _BX,(t1+2)
00002AF3    EF0AD5                         	LCALL ??FPSUB
00002AF6    AD0020                         	LDBZE _CX,#00h
00002AF9    A1803E22                       	LD    _DX,#3E80h
00002AFD    EF00D5                         	LCALL ??FPCMP
00002B00    D714                           	JNE   ??_474_ELSE
;004282                            {
;004283                                    t = t << 2;
00002B02    B30129021C                     	LDB   _AL,t
00002B07    19021C                         	SHLB  _AL,#02h
00002B0A    C70129021C                     	STB   _AL,t
;004284                                    t = t + 1;
00002B0F    171C                           	INCB  _AL
00002B11    C70129021C                     	STB   _AL,t
;004285                            }
                 ??_474_ELSE:
;004287                            if ((t1 - t) == 0.5)
00002B16    B30129021C                     	LDB   _AL,t
00002B1B    EFE2D4                         	LCALL ??FPCONV8U
00002B1E    A01C20                         	LD    _CX,_AX
00002B21    A01E22                         	LD    _DX,_BX
00002B24    A3010C001C                     	LD    _AX,t1
00002B29    A3010E001E                     	LD    _BX,(t1+2)
00002B2E    EFCFD4                         	LCALL ??FPSUB
00002B31    AD0020                         	LDBZE _CX,#00h
00002B34    A1003F22                       	LD    _DX,#3F00h
00002B38    EFC5D4                         	LCALL ??FPCMP
00002B3B    D715                           	JNE   ??_475_ELSE
;004288                            {
;004289                                    t = t << 2;
00002B3D    B30129021C                     	LDB   _AL,t
00002B42    19021C                         	SHLB  _AL,#02h
00002B45    C70129021C                     	STB   _AL,t
;004290                                    t = t + 2;
00002B4A    75021C                         	ADDB  _AL,#02h
00002B4D    C70129021C                     	STB   _AL,t
;004291                            }
                 ??_475_ELSE:
;004292                            if ((t1 - t) == 0.75)
00002B52    B30129021C                     	LDB   _AL,t
00002B57    EFA6D4                         	LCALL ??FPCONV8U
00002B5A    A01C20                         	LD    _CX,_AX
00002B5D    A01E22                         	LD    _DX,_BX
00002B60    A3010C001C                     	LD    _AX,t1
00002B65    A3010E001E                     	LD    _BX,(t1+2)
00002B6A    EF93D4                         	LCALL ??FPSUB
00002B6D    AD0020                         	LDBZE _CX,#00h
00002B70    A1403F22                       	LD    _DX,#3F40h
00002B74    EF89D4                         	LCALL ??FPCMP
00002B77    D715                           	JNE   ??_476_ELSE
;004293                            {
;004294                                    t = t << 2;
00002B79    B30129021C                     	LDB   _AL,t
00002B7E    19021C                         	SHLB  _AL,#02h
00002B81    C70129021C                     	STB   _AL,t
;004295                                    t = t + 3;
00002B86    75031C                         	ADDB  _AL,#03h
00002B89    C70129021C                     	STB   _AL,t
;004296                            }
                 ??_476_ELSE:
;004298                            dig_td[0][d] = dig_td[0][d] + 1;
00002B8E    B3252E011C                     	LDB   _AL,dig_td[d?main]
00002B93    171C                           	INCB  _AL
00002B95    C7252E011C                     	STB   _AL,dig_td[d?main]
;004299                    }
                  ??_471_END:
;004303                    if (bl_td[d] != 255)
00002B9A    B325F3001C                     	LDB   _AL,bl_td[d?main]
00002B9F    99FF1C                         	CMPB  _AL,#0FFh
00002BA2    DF0D                           	JE    ??_477_ELSE
;004304                    {
;004305                            dig_td[0][d] = dig_td[0][d] + 0x40;
00002BA4    B3252E011C                     	LDB   _AL,dig_td[d?main]
00002BA9    75401C                         	ADDB  _AL,#40h
00002BAC    C7252E011C                     	STB   _AL,dig_td[d?main]
;004306                    }
                 ??_477_ELSE:
;004308                    if (mode_td == 0)
00002BB1    B30113021C                     	LDB   _AL,mode_td
00002BB6    98001C                         	CMPB  _AL,0
00002BB9    D70D                           	JNE   ??_478_ELSE
;004309                    {
;004310                            dig_td[0][d] = dig_td[0][d] + 0x80;
00002BBB    B3252E011C                     	LDB   _AL,dig_td[d?main]
00002BC0    75801C                         	ADDB  _AL,#80h
00002BC3    C7252E011C                     	STB   _AL,dig_td[d?main]
;004311                    }
                 ??_478_ELSE:
;004314                    dig_td[0][d] = dig_td[0][d] + 0x20;
00002BC8    B3252E011C                     	LDB   _AL,dig_td[d?main]
00002BCD    75201C                         	ADDB  _AL,#20h
00002BD0    C7252E011C                     	STB   _AL,dig_td[d?main]
;004316                    dig_td[1][d] = t;
00002BD5    B30129021C                     	LDB   _AL,t
00002BDA    C7253B011C                     	STB   _AL,(dig_td+13)[d?main]
;004318            }
00002BDF    0724                           	INC   d?main
                ??_470_CHECK:
00002BE1    890C0024                       	CMP   d?main,#000Ch
00002BE5    D602                           	JGE   ??_470_LOOP_BYPASS_2BE5
00002BE7    2603                           	SJMP  ??_470_LOOP
     ??_470_LOOP_BYPASS_2BE5:
;004322            dig_td[0][td1-1] = dig_td[0][td1-1] - 0x20;
00002BE9    AF0110001E                     	LDBZE _BX,td1
00002BEE    AF0110001C                     	LDBZE _AX,td1
00002BF3    B31D2D011C                     	LDB   _AL,dig_td-0001h[_AX]
00002BF8    75E01C                         	ADDB  _AL,#0E0h
00002BFB    C71F2D011C                     	STB   _AL,dig_td-0001h[_BX]
;004323            dig_td[0][2 + td2] = dig_td[0][2 + td2] - 0x20;
00002C00    AF0111001E                     	LDBZE _BX,td2
00002C05    AF0111001C                     	LDBZE _AX,td2
00002C0A    B31D30011C                     	LDB   _AL,(dig_td+2)[_AX]
00002C0F    75E01C                         	ADDB  _AL,#0E0h
00002C12    C71F30011C                     	STB   _AL,(dig_td+2)[_BX]
;004324            dig_td[0][5 + td3] = dig_td[0][5 + td3] - 0x20;
00002C17    AF0112001E                     	LDBZE _BX,td3
00002C1C    AF0112001C                     	LDBZE _AX,td3
00002C21    B31D33011C                     	LDB   _AL,(dig_td+5)[_AX]
00002C26    75E01C                         	ADDB  _AL,#0E0h
00002C29    C71F33011C                     	STB   _AL,(dig_td+5)[_BX]
;004325            dig_td[0][8 + td4] = dig_td[0][8 + td4] - 0x20;
00002C2E    AF0113001E                     	LDBZE _BX,td4
00002C33    AF0113001C                     	LDBZE _AX,td4
00002C38    B31D36011C                     	LDB   _AL,(dig_td+8)[_AX]
00002C3D    75E01C                         	ADDB  _AL,#0E0h
00002C40    C71F36011C                     	STB   _AL,(dig_td+8)[_BX]
;004329            if (ruch_mode == 1)
00002C45    B30123021C                     	LDB   _AL,ruch_mode
00002C4A    99011C                         	CMPB  _AL,#01h
00002C4D    D70F                           	JNE   ??_479_ELSE
;004330            {
;004331                    tips_td = 4 + avt_mode2;
00002C4F    B301F2001C                     	LDB   _AL,avt_mode2
00002C54    75041C                         	ADDB  _AL,#04h
00002C57    C70131021C                     	STB   _AL,tips_td
;004332            }
00002C5C    2045                           	SJMP  ??_479_END
                 ??_479_ELSE:
;004334            {
;004337                    if (avt_mode1 == 3)
00002C5E    B301F1001C                     	LDB   _AL,avt_mode1
00002C63    99031C                         	CMPB  _AL,#03h
00002C66    D70D                           	JNE   ??_480_ELSE
;004338                    {
;004339                            tips_td = 6 + avt_mode2;
00002C68    B301F2001C                     	LDB   _AL,avt_mode2
00002C6D    75061C                         	ADDB  _AL,#06h
00002C70    C70131021C                     	STB   _AL,tips_td
;004340                    }
                 ??_480_ELSE:
;004344                    if (avt_mode1 == 0)
00002C75    B301F1001C                     	LDB   _AL,avt_mode1
00002C7A    98001C                         	CMPB  _AL,0
00002C7D    D70D                           	JNE   ??_481_ELSE
;004345                    {
;004346                            tips_td = 4 + avt_mode2;
00002C7F    B301F2001C                     	LDB   _AL,avt_mode2
00002C84    75041C                         	ADDB  _AL,#04h
00002C87    C70131021C                     	STB   _AL,tips_td
;004347                    }
                 ??_481_ELSE:
;004351                    if (avt_mode1 == 1)
00002C8C    B301F1001C                     	LDB   _AL,avt_mode1
00002C91    99011C                         	CMPB  _AL,#01h
00002C94    D70D                           	JNE   ??_482_ELSE
;004352                    {
;004353                            tips_td = 2 + avt_mode2;
00002C96    B301F2001C                     	LDB   _AL,avt_mode2
00002C9B    75021C                         	ADDB  _AL,#02h
00002C9E    C70131021C                     	STB   _AL,tips_td
;004354                    }
                 ??_482_ELSE:
;004355            }
                  ??_479_END:
            ??_check_td_main:
;004365            if (mode_td == 1)
00002CA3    B30113021C                     	LDB   _AL,mode_td
00002CA8    99011C                         	CMPB  _AL,#01h
00002CAB    D749                           	JNE   ??_483_ELSE
;004366            {
;004368                    status_uart = SP_STAT0;
00002CAD    C701280200                     	STB   SP_STAT0,status_uart
;004370                    if ((status_uart & 0x40) != 0)
00002CB2    B30128021C                     	LDB   _AL,status_uart
00002CB7    71401C                         	ANDB  _AL,#40h
00002CBA    98001C                         	CMPB  _AL,0
;004371                    {
;004372                            goto Yes_uart_data;
00002CBD    DF03                           	JE    ??_Yes_uart_data_main_BYPASS_2CBD
00002CBF    E7A0E3                         	LJMP  ??_Yes_uart_data_main
??_Yes_uart_data_main_BYPASS_2CBD:
;004373                    }
;004378                    if (state_tdd1 < 2)
00002CC2    B30124021C                     	LDB   _AL,state_tdd1
00002CC7    99021C                         	CMPB  _AL,#02h
00002CCA    DB03                           	JC    ??_485_ELSE
;004379                    {
;004380                            check_td_13();
00002CCC    EF04D4                         	LCALL check_td_13
;004381                    }
                 ??_485_ELSE:
;004383                    if (state_tdd2 < 2)
00002CCF    B30125021C                     	LDB   _AL,state_tdd2
00002CD4    99021C                         	CMPB  _AL,#02h
00002CD7    DB03                           	JC    ??_486_ELSE
;004384                    {
;004385                            check_td_46();
00002CD9    EF27D7                         	LCALL check_td_46
;004386                    }
                 ??_486_ELSE:
;004388                    if (state_tdd3 < 2)
00002CDC    B30126021C                     	LDB   _AL,state_tdd3
00002CE1    99021C                         	CMPB  _AL,#02h
00002CE4    DB03                           	JC    ??_487_ELSE
;004389                    {
;004390                            check_td_79();
00002CE6    EF4ADA                         	LCALL check_td_79
;004391                    }
                 ??_487_ELSE:
;004393                    if (state_tdd4 < 2)
00002CE9    B30127021C                     	LDB   _AL,state_tdd4
00002CEE    99021C                         	CMPB  _AL,#02h
00002CF1    DB03                           	JC    ??_488_ELSE
;004394                    {
;004395                            check_td_1012();
00002CF3    EF6DDD                         	LCALL check_td_1012
;004396                    }
                 ??_488_ELSE:
;004397            }
                 ??_483_ELSE:
         ??_auto_mode_1_main:
;004404            if (avt_mode1 != 0)
00002CF6    B301F1001C                     	LDB   _AL,avt_mode1
00002CFB    98001C                         	CMPB  _AL,0
00002CFE    D703                           	JNE   ??_489_ELSE_BYPASS_2CFE
00002D00    E70F04                         	LJMP  ??_489_ELSE
     ??_489_ELSE_BYPASS_2CFE:
;004405            {
;004407                    status_uart = SP_STAT0;
00002D03    C701280200                     	STB   SP_STAT0,status_uart
;004409                    if ((status_uart & 0x40) != 0)
00002D08    B30128021C                     	LDB   _AL,status_uart
00002D0D    71401C                         	ANDB  _AL,#40h
00002D10    98001C                         	CMPB  _AL,0
;004410                    {
;004411                            goto Yes_uart_data;
00002D13    DF03                           	JE    ??_Yes_uart_data_main_BYPASS_2D13
00002D15    E74AE3                         	LJMP  ??_Yes_uart_data_main
??_Yes_uart_data_main_BYPASS_2D13:
;004412                    }
;004420                    if (vent_min == 19)
00002D18    B30115001C                     	LDB   _AL,vent_min
00002D1D    99131C                         	CMPB  _AL,#13h
00002D20    D76D                           	JNE   ??_491_ELSE
;004421                    {
;004422                            if ((fabs(t_td[2+td2] - t_td[td1-1]) > 7.5) && (t_td[2+td2] >= 27))
00002D22    AF01100024                     	LDBZE _EX,td1
00002D27    090224                         	SHL   _EX,#02h
00002D2A    AF01110020                     	LDBZE _CX,td2
00002D2F    090220                         	SHL   _CX,#02h
00002D32    A32118001C                     	LD    _AX,(t_td+8)[_CX]
00002D37    A3211A001E                     	LD    _BX,(t_td+10)[_CX]
00002D3C    A3250C0020                     	LD    _CX,t_td-0004h[_EX]
00002D41    A3250E0022                     	LD    _DX,t_td-0002h[_EX]
00002D46    EFB7D2                         	LCALL ??FPSUB
00002D49    EFB4D2                         	LCALL fabs
00002D4C    AD0020                         	LDBZE _CX,#00h
00002D4F    A1F04022                       	LD    _DX,#40F0h
00002D53    EFAAD2                         	LCALL ??FPCMP
00002D56    DA30                           	JLE   ??_492_ELSE
00002D58    AF01110020                     	LDBZE _CX,td2
00002D5D    090220                         	SHL   _CX,#02h
00002D60    A32118001C                     	LD    _AX,(t_td+8)[_CX]
00002D65    A3211A001E                     	LD    _BX,(t_td+10)[_CX]
00002D6A    AD0020                         	LDBZE _CX,#00h
00002D6D    A1D84122                       	LD    _DX,#41D8h
00002D71    EF8CD2                         	LCALL ??FPCMP
00002D74    DE12                           	JLT   ??_492_ELSE
;004423                            {
;004424                                    ruch_mode = 1;
00002D76    B1011C                         	LDB   _AL,#01h
00002D79    C70123021C                     	STB   _AL,ruch_mode
;004426                                    code_av = 153;
00002D7E    B1991C                         	LDB   _AL,#99h
00002D81    C70125011C                     	STB   _AL,code_av
;004428                                    goto auto_mode_2;
00002D86    238A                           	SJMP  ??_auto_mode_2_main
;004429                            }
                 ??_492_ELSE:
;004431                            {
;004432                                    ruch_mode = 0;
00002D88    C701230200                     	STB   00h,ruch_mode
;004433                            }
;004434                    }
00002D8D    206B                           	SJMP  ??_491_END
                 ??_491_ELSE:
;004436                    {
;004439                            if ((fabs(t_td[2+td2] - t_td[td1-1]) > 5.5) && (t_td[2+td2] >= 26))
00002D8F    AF01100024                     	LDBZE _EX,td1
00002D94    090224                         	SHL   _EX,#02h
00002D97    AF01110020                     	LDBZE _CX,td2
00002D9C    090220                         	SHL   _CX,#02h
00002D9F    A32118001C                     	LD    _AX,(t_td+8)[_CX]
00002DA4    A3211A001E                     	LD    _BX,(t_td+10)[_CX]
00002DA9    A3250C0020                     	LD    _CX,t_td-0004h[_EX]
00002DAE    A3250E0022                     	LD    _DX,t_td-0002h[_EX]
00002DB3    EF4AD2                         	LCALL ??FPSUB
00002DB6    EF47D2                         	LCALL fabs
00002DB9    AD0020                         	LDBZE _CX,#00h
00002DBC    A1B04022                       	LD    _DX,#40B0h
00002DC0    EF3DD2                         	LCALL ??FPCMP
00002DC3    DA30                           	JLE   ??_494_ELSE
00002DC5    AF01110020                     	LDBZE _CX,td2
00002DCA    090220                         	SHL   _CX,#02h
00002DCD    A32118001C                     	LD    _AX,(t_td+8)[_CX]
00002DD2    A3211A001E                     	LD    _BX,(t_td+10)[_CX]
00002DD7    AD0020                         	LDBZE _CX,#00h
00002DDA    A1D04122                       	LD    _DX,#41D0h
00002DDE    EF1FD2                         	LCALL ??FPCMP
00002DE1    DE12                           	JLT   ??_494_ELSE
;004440                            {
;004441                                    ruch_mode = 1;
00002DE3    B1011C                         	LDB   _AL,#01h
00002DE6    C70123021C                     	STB   _AL,ruch_mode
;004443                                    code_av = 153;
00002DEB    B1991C                         	LDB   _AL,#99h
00002DEE    C70125011C                     	STB   _AL,code_av
;004445                                    goto auto_mode_2;
00002DF3    231D                           	SJMP  ??_auto_mode_2_main
;004446                            }
                 ??_494_ELSE:
;004448                            {
;004449                                    ruch_mode = 0;
00002DF5    C701230200                     	STB   00h,ruch_mode
;004450                            }
;004451                    }
                  ??_491_END:
;004456                    if (count_otk_g >= 4)
00002DFA    B3012A011C                     	LDB   _AL,count_otk_g
00002DFF    99041C                         	CMPB  _AL,#04h
;004457                    {
;004458                            goto auto_mode_1_nagr;
00002E02    D302                           	JNC   ??_auto_mode_1_nagr_main_BYPASS_2E02
00002E04    21B8                           	SJMP  ??_auto_mode_1_nagr_main
??_auto_mode_1_nagr_main_BYPASS_2E02:
;004459                    }
;004461                    if (count_otk_h >= 4)
00002E06    B3012B011C                     	LDB   _AL,count_otk_h
00002E0B    99041C                         	CMPB  _AL,#04h
;004462                    {
;004463                            goto auto_mode_1_nagr;
00002E0E    D302                           	JNC   ??_auto_mode_1_nagr_main_BYPASS_2E0E
00002E10    21AC                           	SJMP  ??_auto_mode_1_nagr_main
??_auto_mode_1_nagr_main_BYPASS_2E0E:
;004464                    }
;004468                    if (num_AB == 0)
00002E12    B30115021C                     	LDB   _AL,num_AB
00002E17    98001C                         	CMPB  _AL,0
00002E1A    D70E                           	JNE   ??_498_ELSE
;004469                    {
;004470                            PMLC_select_device(NOM_PDEV, PDEV_3, &PMLC_TASK);
00002E1C    111C                           	CLRB  _AL
00002E1E    B1031D                         	LDB   _AH,#03h
00002E21    A100001E                       	LD    _BX,#PMLC_TASK
00002E25    EFD8D1                         	LCALL PMLC_select_device
;004471                    }
00002E28    200D                           	SJMP  ??_498_END
                 ??_498_ELSE:
;004473                    {
;004474                            PMLC_select_device(RSV_PDEV, PDEV_3, &PMLC_TASK);
00002E2A    B1801C                         	LDB   _AL,#80h
00002E2D    B1031D                         	LDB   _AH,#03h
00002E30    A100001E                       	LD    _BX,#PMLC_TASK
00002E34    EFC9D1                         	LCALL PMLC_select_device
;004475                    }
                  ??_498_END:
;004477                    PMLC_cmd_exec(&PMLC_TASK, ADDR_IO_PORT_2, CMD_READ, 0x00, &(BTA05R_AN.IO_PORT_2));
00002E37    A100001C                       	LD    _AX,#PMLC_TASK
00002E3B    B1201E                         	LDB   _BL,#20h
00002E3E    B1081F                         	LDB   _BH,#08h
00002E41    1120                           	CLRB  _CL
00002E43    A1020022                       	LD    _DX,#(BTA05R_AN+2)
00002E47    EFB6D1                         	LCALL PMLC_cmd_exec
;004478                    tm_data_5 = ~BTA05R_AN.IO_PORT_2;
00002E4A    B30102001C                     	LDB   _AL,(BTA05R_AN+2)
00002E4F    121C                           	NOTB  _AL
00002E51    C70144021C                     	STB   _AL,tm_data_5
;004481                    if (num_AB == 0)
00002E56    B30115021C                     	LDB   _AL,num_AB
00002E5B    98001C                         	CMPB  _AL,0
00002E5E    D70E                           	JNE   ??_499_ELSE
;004482                    {
;004483                            PMLC_select_device(NOM_PDEV, PDEV_2, &PMLC_TASK);
00002E60    111C                           	CLRB  _AL
00002E62    B1021D                         	LDB   _AH,#02h
00002E65    A100001E                       	LD    _BX,#PMLC_TASK
00002E69    EF94D1                         	LCALL PMLC_select_device
;004484                    }
00002E6C    200D                           	SJMP  ??_499_END
                 ??_499_ELSE:
;004486                    {
;004487                            PMLC_select_device(RSV_PDEV, PDEV_2, &PMLC_TASK);
00002E6E    B1801C                         	LDB   _AL,#80h
00002E71    B1021D                         	LDB   _AH,#02h
00002E74    A100001E                       	LD    _BX,#PMLC_TASK
00002E78    EF85D1                         	LCALL PMLC_select_device
;004488                    }
                  ??_499_END:
;004491                    PMLC_cmd_exec(&PMLC_TASK, ADDR_IO_PORT_2, CMD_READ, 0x00, &(BTA05R_AN.IO_PORT_2));
00002E7B    A100001C                       	LD    _AX,#PMLC_TASK
00002E7F    B1201E                         	LDB   _BL,#20h
00002E82    B1081F                         	LDB   _BH,#08h
00002E85    1120                           	CLRB  _CL
00002E87    A1020022                       	LD    _DX,#(BTA05R_AN+2)
00002E8B    EF72D1                         	LCALL PMLC_cmd_exec
;004492                    tm_data_6 = ~BTA05R_AN.IO_PORT_2;
00002E8E    B30102001C                     	LDB   _AL,(BTA05R_AN+2)
00002E93    121C                           	NOTB  _AL
00002E95    C70145021C                     	STB   _AL,tm_data_6
;004498                    if (t_td[td1-1] <= vent_min)
00002E9A    B30115001C                     	LDB   _AL,vent_min
00002E9F    EF5ED1                         	LCALL ??FPCONV8U
00002EA2    A01C20                         	LD    _CX,_AX
00002EA5    A01E22                         	LD    _DX,_BX
00002EA8    AF01100024                     	LDBZE _EX,td1
00002EAD    090224                         	SHL   _EX,#02h
00002EB0    A3250C001C                     	LD    _AX,t_td-0004h[_EX]
00002EB5    A3250E001E                     	LD    _BX,t_td-0002h[_EX]
00002EBA    EF43D1                         	LCALL ??FPCMP
00002EBD    D268                           	JGT   ??_500_ELSE
;004499                    {
;004505                            if ((tim_25 == 0) && (tim_25_t == 0)  && (tim_25_otk == 0))
00002EBF    B3012E021C                     	LDB   _AL,tim_25
00002EC4    98001C                         	CMPB  _AL,0
00002EC7    D763                           	JNE   ??_500_END
00002EC9    B30130021C                     	LDB   _AL,tim_25_t
00002ECE    98001C                         	CMPB  _AL,0
00002ED1    D759                           	JNE   ??_500_END
00002ED3    B3012F021C                     	LDB   _AL,tim_25_otk
00002ED8    98001C                         	CMPB  _AL,0
00002EDB    D74F                           	JNE   ??_500_END
;004506                            {
;004509                                    if (GR20_19 == 0)
00002EDD    B301E8001C                     	LDB   _AL,GR20_19
00002EE2    98001C                         	CMPB  _AL,0
00002EE5    D745                           	JNE   ??_500_END
;004510                                    {
;004513                                            ta_vozd = 255;
00002EE7    B1FF1C                         	LDB   _AL,#0FFh
00002EEA    C7012D021C                     	STB   _AL,ta_vozd
;004517                                            if (tm_data_6 != 0)
00002EEF    B30145021C                     	LDB   _AL,tm_data_6
00002EF4    98001C                         	CMPB  _AL,0
00002EF7    DF03                           	JE    ??_505_ELSE
;004518                                            {
;004519                                                    otkl_kontur_h();
00002EF9    EF04D1                         	LCALL otkl_kontur_h
;004520                                            }
                 ??_505_ELSE:
;004524                                            if (tm_data_5 == 0)
00002EFC    B30144021C                     	LDB   _AL,tm_data_5
00002F01    98001C                         	CMPB  _AL,0
00002F04    D717                           	JNE   ??_506_ELSE
;004525                                            {
;004526                                                    vent_gh_t = 0;
00002F06    C7014C0200                     	STB   00h,vent_gh_t
;004528                                                    tim_25_t = 1;
00002F0B    B1011C                         	LDB   _AL,#01h
00002F0E    C70130021C                     	STB   _AL,tim_25_t
;004529                                                    count_tim_25_t = 0;
00002F13    C301900000                     	ST    00h,count_tim_25_t
;004530                                                    finish_25_t = 0;
00002F18    C7014A0100                     	STB   00h,finish_25_t
;004531                                            }
                 ??_506_ELSE:
;004535                                            GR20_19 = 1;
00002F1D    B1011C                         	LDB   _AL,#01h
00002F20    C701E8001C                     	STB   _AL,GR20_19
;004536                                    }
;004537                            }
;004538                    }
00002F25    2005                           	SJMP  ??_500_END
                 ??_500_ELSE:
;004540                    {
;004542                            GR20_19 = 0;
00002F27    C701E80000                     	STB   00h,GR20_19
;004543                    }
                  ??_500_END:
;004548                    if (t_td[2+td2] >= vent_max)
00002F2C    B30114001C                     	LDB   _AL,vent_max
00002F31    EFCCD0                         	LCALL ??FPCONV8U
00002F34    A01C20                         	LD    _CX,_AX
00002F37    A01E22                         	LD    _DX,_BX
00002F3A    AF01110024                     	LDBZE _EX,td2
00002F3F    090224                         	SHL   _EX,#02h
00002F42    A32518001C                     	LD    _AX,(t_td+8)[_EX]
00002F47    A3251A001E                     	LD    _BX,(t_td+10)[_EX]
00002F4C    EFB1D0                         	LCALL ??FPCMP
00002F4F    DE68                           	JLT   ??_507_ELSE
;004549                    {
;004556                            if ((tim_25 == 0) && (tim_25_t == 0) && (tim_25_otk == 0))
00002F51    B3012E021C                     	LDB   _AL,tim_25
00002F56    98001C                         	CMPB  _AL,0
00002F59    D763                           	JNE   ??_507_END
00002F5B    B30130021C                     	LDB   _AL,tim_25_t
00002F60    98001C                         	CMPB  _AL,0
00002F63    D759                           	JNE   ??_507_END
00002F65    B3012F021C                     	LDB   _AL,tim_25_otk
00002F6A    98001C                         	CMPB  _AL,0
00002F6D    D74F                           	JNE   ??_507_END
;004557                            {
;004560                                    if (GR26_27 == 0)
00002F6F    B301EC001C                     	LDB   _AL,GR26_27
00002F74    98001C                         	CMPB  _AL,0
00002F77    D745                           	JNE   ??_507_END
;004561                                    {
;004564                                            ta_vozd = 255;
00002F79    B1FF1C                         	LDB   _AL,#0FFh
00002F7C    C7012D021C                     	STB   _AL,ta_vozd
;004568                                            if (tm_data_5 != 0)
00002F81    B30144021C                     	LDB   _AL,tm_data_5
00002F86    98001C                         	CMPB  _AL,0
00002F89    DF03                           	JE    ??_512_ELSE
;004569                                            {
;004570                                                    otkl_kontur_g();
00002F8B    EF72D0                         	LCALL otkl_kontur_g
;004571                                            }
                 ??_512_ELSE:
;004575                                            if (tm_data_6 == 0)
00002F8E    B30145021C                     	LDB   _AL,tm_data_6
00002F93    98001C                         	CMPB  _AL,0
00002F96    D717                           	JNE   ??_513_ELSE
;004576                                            {
;004577                                                    vent_gh_t = 1;
00002F98    B1011C                         	LDB   _AL,#01h
00002F9B    C7014C021C                     	STB   _AL,vent_gh_t
;004579                                                    tim_25_t = 1;
00002FA0    C70130021C                     	STB   _AL,tim_25_t
;004580                                                    count_tim_25_t = 0;
00002FA5    C301900000                     	ST    00h,count_tim_25_t
;004581                                                    finish_25_t = 0;
00002FAA    C7014A0100                     	STB   00h,finish_25_t
;004582                                            }
                 ??_513_ELSE:
;004586                                            GR26_27 = 1;
00002FAF    B1011C                         	LDB   _AL,#01h
00002FB2    C701EC001C                     	STB   _AL,GR26_27
;004587                                    }
;004588                            }
;004589                    }
00002FB7    2005                           	SJMP  ??_507_END
                 ??_507_ELSE:
;004591                    {
;004593                            GR26_27 = 0;
00002FB9    C701EC0000                     	STB   00h,GR26_27
;004594                    }
                  ??_507_END:
    ??_auto_mode_1_nagr_main:
;004601                    if (avt_mode1 == 3)
00002FBE    B301F1001C                     	LDB   _AL,avt_mode1
00002FC3    99031C                         	CMPB  _AL,#03h
00002FC6    DF02                           	JE    ??_514_ELSE_BYPASS_2FC6
00002FC8    2148                           	SJMP  ??_514_ELSE
     ??_514_ELSE_BYPASS_2FC6:
;004602                    {
;004606                            if (t_td[td1-1] <= nagr_g)
00002FCA    B3010B001C                     	LDB   _AL,nagr_g
00002FCF    EF2ED0                         	LCALL ??FPCONV8U
00002FD2    A01C20                         	LD    _CX,_AX
00002FD5    A01E22                         	LD    _DX,_BX
00002FD8    AF01100024                     	LDBZE _EX,td1
00002FDD    090224                         	SHL   _EX,#02h
00002FE0    A3250C001C                     	LD    _AX,t_td-0004h[_EX]
00002FE5    A3250E001E                     	LD    _BX,t_td-0002h[_EX]
00002FEA    EF13D0                         	LCALL ??FPCMP
00002FED    D24F                           	JGT   ??_515_ELSE
;004607                            {
;004610                                    if (GR18_17 == 0)
00002FEF    B301E6001C                     	LDB   _AL,GR18_17
00002FF4    98001C                         	CMPB  _AL,0
00002FF7    D74A                           	JNE   ??_515_END
;004611                                    {
;004614                                            if ((tm_2 & 0xC) == 0)
00002FF9    B30135021C                     	LDB   _AL,tm_2
00002FFE    710C1C                         	ANDB  _AL,#0Ch
00003001    98001C                         	CMPB  _AL,0
00003004    D72E                           	JNE   ??_517_ELSE
;004615                                            {
;004616                                                    if (on_ta(11) != 0)
00003006    B10B1C                         	LDB   _AL,#0Bh
00003009    EFF4CF                         	LCALL on_ta
0000300C    88001C                         	CMP   _AX,0
0000300F    DF1B                           	JE    ??_518_ELSE
;004617                                                    {
;004618                                                            code_av = 11;
00003011    B10B1C                         	LDB   _AL,#0Bh
00003014    C70125011C                     	STB   _AL,code_av
;004620                                                            if (on_ta(12) != 0)
00003019    B10C1C                         	LDB   _AL,#0Ch
0000301C    EFE1CF                         	LCALL on_ta
0000301F    88001C                         	CMP   _AX,0
00003022    DF08                           	JE    ??_519_ELSE
;004621                                                            {
;004622                                                                    code_av = 12;
00003024    B10C1C                         	LDB   _AL,#0Ch
00003027    C70125011C                     	STB   _AL,code_av
;004623                                                            }
                 ??_519_ELSE:
;004624                                                    }
                 ??_518_ELSE:
;004628                                                    ta_vozd = 255;
0000302C    B1FF1C                         	LDB   _AL,#0FFh
0000302F    C7012D021C                     	STB   _AL,ta_vozd
;004629                                            }
                 ??_517_ELSE:
;004632                                            GR18_17 = 1;
00003034    B1011C                         	LDB   _AL,#01h
00003037    C701E6001C                     	STB   _AL,GR18_17
;004633                                    }
;004634                            }
0000303C    2005                           	SJMP  ??_515_END
                 ??_515_ELSE:
;004636                            {
;004638                                    GR18_17 = 0;
0000303E    C701E60000                     	STB   00h,GR18_17
;004639                            }
                  ??_515_END:
;004644                            if (t_td[td1-1] <= nagr_h)
00003043    B3010C001C                     	LDB   _AL,nagr_h
00003048    EFB5CF                         	LCALL ??FPCONV8U
0000304B    A01C20                         	LD    _CX,_AX
0000304E    A01E22                         	LD    _DX,_BX
00003051    AF01100024                     	LDBZE _EX,td1
00003056    090224                         	SHL   _EX,#02h
00003059    A3250C001C                     	LD    _AX,t_td-0004h[_EX]
0000305E    A3250E001E                     	LD    _BX,t_td-0002h[_EX]
00003063    EF9ACF                         	LCALL ??FPCMP
00003066    D24F                           	JGT   ??_520_ELSE
;004645                            {
;004648                                    if (GR19_18 == 0)
00003068    B301E7001C                     	LDB   _AL,GR19_18
0000306D    98001C                         	CMPB  _AL,0
00003070    D74A                           	JNE   ??_520_END
;004649                                    {
;004652                                            if ((tm_2 & 0x3) == 0)
00003072    B30135021C                     	LDB   _AL,tm_2
00003077    71031C                         	ANDB  _AL,#03h
0000307A    98001C                         	CMPB  _AL,0
0000307D    D72E                           	JNE   ??_522_ELSE
;004653                                            {
;004654                                                    if (on_ta(9) != 0)
0000307F    B1091C                         	LDB   _AL,#09h
00003082    EF7BCF                         	LCALL on_ta
00003085    88001C                         	CMP   _AX,0
00003088    DF1B                           	JE    ??_523_ELSE
;004655                                                    {
;004656                                                            code_av = 9;
0000308A    B1091C                         	LDB   _AL,#09h
0000308D    C70125011C                     	STB   _AL,code_av
;004658                                                            if (on_ta(10) != 0)
00003092    B10A1C                         	LDB   _AL,#0Ah
00003095    EF68CF                         	LCALL on_ta
00003098    88001C                         	CMP   _AX,0
0000309B    DF08                           	JE    ??_524_ELSE
;004659                                                            {
;004660                                                                    code_av = 10;
0000309D    B10A1C                         	LDB   _AL,#0Ah
000030A0    C70125011C                     	STB   _AL,code_av
;004661                                                            }
                 ??_524_ELSE:
;004662                                                    }
                 ??_523_ELSE:
;004666                                                    ta_vozd = 255;
000030A5    B1FF1C                         	LDB   _AL,#0FFh
000030A8    C7012D021C                     	STB   _AL,ta_vozd
;004667                                            }
                 ??_522_ELSE:
;004670                                            GR19_18 = 1;
000030AD    B1011C                         	LDB   _AL,#01h
000030B0    C701E7001C                     	STB   _AL,GR19_18
;004671                                    }
;004672                            }
000030B5    2005                           	SJMP  ??_520_END
                 ??_520_ELSE:
;004674                            {
;004676                                    GR19_18 = 0;
000030B7    C701E70000                     	STB   00h,GR19_18
;004677                            }
                  ??_520_END:
;004682                            if (t_td[2+td2] >= nagr_off)
000030BC    B3010D001C                     	LDB   _AL,nagr_off
000030C1    EF3CCF                         	LCALL ??FPCONV8U
000030C4    A01C20                         	LD    _CX,_AX
000030C7    A01E22                         	LD    _DX,_BX
000030CA    AF01110024                     	LDBZE _EX,td2
000030CF    090224                         	SHL   _EX,#02h
000030D2    A32518001C                     	LD    _AX,(t_td+8)[_EX]
000030D7    A3251A001E                     	LD    _BX,(t_td+10)[_EX]
000030DC    EF21CF                         	LCALL ??FPCMP
000030DF    DE2C                           	JLT   ??_525_ELSE
;004683                            {
;004686                                    if (GR24_25 == 0)
000030E1    B301EB001C                     	LDB   _AL,GR24_25
000030E6    98001C                         	CMPB  _AL,0
000030E9    D727                           	JNE   ??_525_END
;004687                                    {
;004690                                            if ((tm_2 & 0xF) != 0)
000030EB    B30135021C                     	LDB   _AL,tm_2
000030F0    710F1C                         	ANDB  _AL,#0Fh
000030F3    98001C                         	CMPB  _AL,0
000030F6    DF0B                           	JE    ??_527_ELSE
;004691                                            {
;004692                                                    off_all_nag();
000030F8    EF05CF                         	LCALL off_all_nag
;004694                                                    ta_vozd = 255;
000030FB    B1FF1C                         	LDB   _AL,#0FFh
000030FE    C7012D021C                     	STB   _AL,ta_vozd
;004695                                            }
                 ??_527_ELSE:
;004699                                            GR24_25 = 1;
00003103    B1011C                         	LDB   _AL,#01h
00003106    C701EB001C                     	STB   _AL,GR24_25
;004700                                    }
;004701                            }
0000310B    2005                           	SJMP  ??_525_END
                 ??_525_ELSE:
;004703                            {
;004706                                    GR24_25 = 0;
0000310D    C701EB0000                     	STB   00h,GR24_25
;004707                            }
                  ??_525_END:
;004708                    }
                 ??_514_ELSE:
;004709            }
                 ??_489_ELSE:
         ??_auto_mode_2_main:
;004715            if (avt_mode2 != 0)
00003112    B301F2001C                     	LDB   _AL,avt_mode2
00003117    98001C                         	CMPB  _AL,0
0000311A    D702                           	JNE   ??_528_ELSE_BYPASS_311A
0000311C    234C                           	SJMP  ??_528_ELSE
     ??_528_ELSE_BYPASS_311A:
;004716            {
;004722                    if (t_td[5+td3] <= 0)
0000311E    AF01120020                     	LDBZE _CX,td3
00003123    090220                         	SHL   _CX,#02h
00003126    A32124001C                     	LD    _AX,(t_td+20)[_CX]
0000312B    A32126001E                     	LD    _BX,(t_td+22)[_CX]
00003130    AD0020                         	LDBZE _CX,#00h
00003133    AD0022                         	LDBZE _DX,#00h
00003136    EFC7CE                         	LCALL ??FPCMP
00003139    D24F                           	JGT   ??_529_ELSE
;004723                    {
;004726                            if (GR0_X == 0)
0000313B    B301E0001C                     	LDB   _AL,GR0_X
00003140    98001C                         	CMPB  _AL,0
00003143    D74A                           	JNE   ??_529_END
;004727                            {
;004731                                    if ((tm_1 & 0x3) == 0)
00003145    B30132021C                     	LDB   _AL,tm_1
0000314A    71031C                         	ANDB  _AL,#03h
0000314D    98001C                         	CMPB  _AL,0
00003150    D72E                           	JNE   ??_531_ELSE
;004732                                    {
;004733                                            if (on_ta(1) != 0)
00003152    B1011C                         	LDB   _AL,#01h
00003155    EFA8CE                         	LCALL on_ta
00003158    88001C                         	CMP   _AX,0
0000315B    DF1B                           	JE    ??_532_ELSE
;004734                                            {
;004735                                                    code_av = 1;
0000315D    B1011C                         	LDB   _AL,#01h
00003160    C70125011C                     	STB   _AL,code_av
;004737                                                    if (on_ta(2) != 0)
00003165    B1021C                         	LDB   _AL,#02h
00003168    EF95CE                         	LCALL on_ta
0000316B    88001C                         	CMP   _AX,0
0000316E    DF08                           	JE    ??_533_ELSE
;004738                                                    {
;004739                                                            code_av = 2;
00003170    B1021C                         	LDB   _AL,#02h
00003173    C70125011C                     	STB   _AL,code_av
;004740                                                    }
                 ??_533_ELSE:
;004741                                            }
                 ??_532_ELSE:
;004745                                            ta_vozd = 255;
00003178    B1FF1C                         	LDB   _AL,#0FFh
0000317B    C7012D021C                     	STB   _AL,ta_vozd
;004746                                    }
                 ??_531_ELSE:
;004748                                    GR0_X = 1;
00003180    B1011C                         	LDB   _AL,#01h
00003183    C701E0001C                     	STB   _AL,GR0_X
;004749                            }
;004750                    }
00003188    2005                           	SJMP  ??_529_END
                 ??_529_ELSE:
;004752                    {
;004753                            GR0_X = 0;
0000318A    C701E00000                     	STB   00h,GR0_X
;004754                    }
                  ??_529_END:
;004759                    if (t_td[5+td3] <= -10)
0000318F    AF01120020                     	LDBZE _CX,td3
00003194    090220                         	SHL   _CX,#02h
00003197    A32124001C                     	LD    _AX,(t_td+20)[_CX]
0000319C    A32126001E                     	LD    _BX,(t_td+22)[_CX]
000031A1    AD0020                         	LDBZE _CX,#00h
000031A4    A120C122                       	LD    _DX,#0C120h
000031A8    EF55CE                         	LCALL ??FPCMP
000031AB    D24F                           	JGT   ??_534_ELSE
;004760                    {
;004761                            if (GR10_X == 0)
000031AD    B301E2001C                     	LDB   _AL,GR10_X
000031B2    98001C                         	CMPB  _AL,0
000031B5    D74A                           	JNE   ??_534_END
;004762                            {
;004766                                    if ((tm_1 & 0xC) == 0)
000031B7    B30132021C                     	LDB   _AL,tm_1
000031BC    710C1C                         	ANDB  _AL,#0Ch
000031BF    98001C                         	CMPB  _AL,0
000031C2    D72E                           	JNE   ??_536_ELSE
;004767                                    {
;004769                                            if (on_ta(3) != 0)
000031C4    B1031C                         	LDB   _AL,#03h
000031C7    EF36CE                         	LCALL on_ta
000031CA    88001C                         	CMP   _AX,0
000031CD    DF1B                           	JE    ??_537_ELSE
;004770                                            {
;004771                                                    code_av = 3;
000031CF    B1031C                         	LDB   _AL,#03h
000031D2    C70125011C                     	STB   _AL,code_av
;004773                                                    if (on_ta(4) != 0)
000031D7    B1041C                         	LDB   _AL,#04h
000031DA    EF23CE                         	LCALL on_ta
000031DD    88001C                         	CMP   _AX,0
000031E0    DF08                           	JE    ??_538_ELSE
;004774                                                    {
;004775                                                            code_av = 4;
000031E2    B1041C                         	LDB   _AL,#04h
000031E5    C70125011C                     	STB   _AL,code_av
;004776                                                    }
                 ??_538_ELSE:
;004777                                            }
                 ??_537_ELSE:
;004779                                            ta_vozd = 255;
000031EA    B1FF1C                         	LDB   _AL,#0FFh
000031ED    C7012D021C                     	STB   _AL,ta_vozd
;004780                                    }
                 ??_536_ELSE:
;004782                                    GR10_X = 1;
000031F2    B1011C                         	LDB   _AL,#01h
000031F5    C701E2001C                     	STB   _AL,GR10_X
;004783                            }
;004784                    }
000031FA    2005                           	SJMP  ??_534_END
                 ??_534_ELSE:
;004786                    {
;004787                            GR10_X = 0;
000031FC    C701E20000                     	STB   00h,GR10_X
;004788                    }
                  ??_534_END:
;004792                    if (t_td[5+td3] >= 5)
00003201    AF01120020                     	LDBZE _CX,td3
00003206    090220                         	SHL   _CX,#02h
00003209    A32124001C                     	LD    _AX,(t_td+20)[_CX]
0000320E    A32126001E                     	LD    _BX,(t_td+22)[_CX]
00003213    AD0020                         	LDBZE _CX,#00h
00003216    A1A04022                       	LD    _DX,#40A0h
0000321A    EFE3CD                         	LCALL ??FPCMP
0000321D    D602                           	JGE   ??_539_ELSE_BYPASS_321D
0000321F    209E                           	SJMP  ??_539_ELSE
     ??_539_ELSE_BYPASS_321D:
;004793                    {
;004794                            if (GR5_X == 0)
00003221    B301ED001C                     	LDB   _AL,GR5_X
00003226    98001C                         	CMPB  _AL,0
00003229    DF02                           	JE    ??_539_END_BYPASS_3229
0000322B    2097                           	SJMP  ??_539_END
      ??_539_END_BYPASS_3229:
;004795                            {
;004797                                    ta_vozd = 255;
0000322D    B1FF1C                         	LDB   _AL,#0FFh
00003230    C7012D021C                     	STB   _AL,ta_vozd
;004801                                    if ((tm_1 & 0x1) != 0)
00003235    B30132021C                     	LDB   _AL,tm_1
0000323A    71011C                         	ANDB  _AL,#01h
0000323D    98001C                         	CMPB  _AL,0
00003240    DF13                           	JE    ??_541_ELSE
;004802                                    {
;004803                                            if (off_ta(1) != 0)
00003242    B1011C                         	LDB   _AL,#01h
00003245    EFB8CD                         	LCALL off_ta
00003248    88001C                         	CMP   _AX,0
0000324B    DF08                           	JE    ??_542_ELSE
;004804                                            {
;004805                                                    code_av = 33;
0000324D    B1211C                         	LDB   _AL,#21h
00003250    C70125011C                     	STB   _AL,code_av
;004806                                            }
                 ??_542_ELSE:
;004807                                    }
                 ??_541_ELSE:
;004809                                    if ((tm_1 & 0x2) != 0)
00003255    B30132021C                     	LDB   _AL,tm_1
0000325A    71021C                         	ANDB  _AL,#02h
0000325D    98001C                         	CMPB  _AL,0
00003260    DF13                           	JE    ??_543_ELSE
;004810                                    {
;004811                                            if (off_ta(2) != 0)
00003262    B1021C                         	LDB   _AL,#02h
00003265    EF98CD                         	LCALL off_ta
00003268    88001C                         	CMP   _AX,0
0000326B    DF08                           	JE    ??_544_ELSE
;004812                                            {
;004813                                                    code_av = 34;
0000326D    B1221C                         	LDB   _AL,#22h
00003270    C70125011C                     	STB   _AL,code_av
;004814                                            }
                 ??_544_ELSE:
;004815                                    }
                 ??_543_ELSE:
;004818                                    if ((tm_1 & 0x4) != 0)
00003275    B30132021C                     	LDB   _AL,tm_1
0000327A    71041C                         	ANDB  _AL,#04h
0000327D    98001C                         	CMPB  _AL,0
00003280    DF13                           	JE    ??_545_ELSE
;004819                                    {
;004820                                            if (off_ta(3) != 0)
00003282    B1031C                         	LDB   _AL,#03h
00003285    EF78CD                         	LCALL off_ta
00003288    88001C                         	CMP   _AX,0
0000328B    DF08                           	JE    ??_546_ELSE
;004821                                            {
;004822                                                    code_av = 35;
0000328D    B1231C                         	LDB   _AL,#23h
00003290    C70125011C                     	STB   _AL,code_av
;004823                                            }
                 ??_546_ELSE:
;004824                                    }
                 ??_545_ELSE:
;004826                                    if ((tm_1 & 0x8) != 0)
00003295    B30132021C                     	LDB   _AL,tm_1
0000329A    71081C                         	ANDB  _AL,#08h
0000329D    98001C                         	CMPB  _AL,0
000032A0    DF13                           	JE    ??_547_ELSE
;004827                                    {
;004828                                            if (off_ta(4) != 0)
000032A2    B1041C                         	LDB   _AL,#04h
000032A5    EF58CD                         	LCALL off_ta
000032A8    88001C                         	CMP   _AX,0
000032AB    DF08                           	JE    ??_548_ELSE
;004829                                            {
;004830                                                    code_av = 36;
000032AD    B1241C                         	LDB   _AL,#24h
000032B0    C70125011C                     	STB   _AL,code_av
;004831                                            }
                 ??_548_ELSE:
;004832                                    }
                 ??_547_ELSE:
;004834                                    GR5_X = 1;
000032B5    B1011C                         	LDB   _AL,#01h
000032B8    C701ED001C                     	STB   _AL,GR5_X
;004835                            }
;004836                    }
000032BD    2005                           	SJMP  ??_539_END
                 ??_539_ELSE:
;004838                    {
;004839                            GR5_X = 0;
000032BF    C701ED0000                     	STB   00h,GR5_X
;004840                    }
                  ??_539_END:
;004846                    if (t_td[8+td4] <= 0)
000032C4    AF01130020                     	LDBZE _CX,td4
000032C9    090220                         	SHL   _CX,#02h
000032CC    A32130001C                     	LD    _AX,(t_td+32)[_CX]
000032D1    A32132001E                     	LD    _BX,(t_td+34)[_CX]
000032D6    AD0020                         	LDBZE _CX,#00h
000032D9    AD0022                         	LDBZE _DX,#00h
000032DC    EF21CD                         	LCALL ??FPCMP
000032DF    D24F                           	JGT   ??_549_ELSE
;004847                    {
;004848                            if (GR0_Y == 0)
000032E1    B301E1001C                     	LDB   _AL,GR0_Y
000032E6    98001C                         	CMPB  _AL,0
000032E9    D74A                           	JNE   ??_549_END
;004849                            {
;004852                                    if ((tm_1 & 0x30) == 0)
000032EB    B30132021C                     	LDB   _AL,tm_1
000032F0    71301C                         	ANDB  _AL,#30h
000032F3    98001C                         	CMPB  _AL,0
000032F6    D72E                           	JNE   ??_551_ELSE
;004853                                    {
;004855                                            ta_vozd = 255;
000032F8    B1FF1C                         	LDB   _AL,#0FFh
000032FB    C7012D021C                     	STB   _AL,ta_vozd
;004857                                            if (on_ta(5) != 0)
00003300    B1051C                         	LDB   _AL,#05h
00003303    EFFACC                         	LCALL on_ta
00003306    88001C                         	CMP   _AX,0
00003309    DF1B                           	JE    ??_552_ELSE
;004858                                            {
;004859                                                    code_av = 5;
0000330B    B1051C                         	LDB   _AL,#05h
0000330E    C70125011C                     	STB   _AL,code_av
;004861                                                    if (on_ta(6) != 0)
00003313    B1061C                         	LDB   _AL,#06h
00003316    EFE7CC                         	LCALL on_ta
00003319    88001C                         	CMP   _AX,0
0000331C    DF08                           	JE    ??_553_ELSE
;004862                                                    {
;004863                                                            code_av = 6;
0000331E    B1061C                         	LDB   _AL,#06h
00003321    C70125011C                     	STB   _AL,code_av
;004864                                                    }
                 ??_553_ELSE:
;004865                                            }
                 ??_552_ELSE:
;004866                                    }
                 ??_551_ELSE:
;004868                                    GR0_Y = 1;
00003326    B1011C                         	LDB   _AL,#01h
00003329    C701E1001C                     	STB   _AL,GR0_Y
;004869                            }
;004870                    }
0000332E    2005                           	SJMP  ??_549_END
                 ??_549_ELSE:
;004872                    {
;004873                            GR0_Y = 0;
00003330    C701E10000                     	STB   00h,GR0_Y
;004874                    }
                  ??_549_END:
;004878                    if (t_td[8+td4] <= -10)
00003335    AF01130020                     	LDBZE _CX,td4
0000333A    090220                         	SHL   _CX,#02h
0000333D    A32130001C                     	LD    _AX,(t_td+32)[_CX]
00003342    A32132001E                     	LD    _BX,(t_td+34)[_CX]
00003347    AD0020                         	LDBZE _CX,#00h
0000334A    A120C122                       	LD    _DX,#0C120h
0000334E    EFAFCC                         	LCALL ??FPCMP
00003351    D24F                           	JGT   ??_554_ELSE
;004879                    {
;004880                            if (GR10_Y == 0)
00003353    B301E3001C                     	LDB   _AL,GR10_Y
00003358    98001C                         	CMPB  _AL,0
0000335B    D74A                           	JNE   ??_554_END
;004881                            {
;004885                                    if ((tm_1 & 0xC0) == 0)
0000335D    B30132021C                     	LDB   _AL,tm_1
00003362    71C01C                         	ANDB  _AL,#0C0h
00003365    98001C                         	CMPB  _AL,0
00003368    D72E                           	JNE   ??_556_ELSE
;004886                                    {
;004888                                            ta_vozd = 255;
0000336A    B1FF1C                         	LDB   _AL,#0FFh
0000336D    C7012D021C                     	STB   _AL,ta_vozd
;004890                                            if (on_ta(7) != 0)
00003372    B1071C                         	LDB   _AL,#07h
00003375    EF88CC                         	LCALL on_ta
00003378    88001C                         	CMP   _AX,0
0000337B    DF1B                           	JE    ??_557_ELSE
;004891                                            {
;004892                                                    code_av = 7;
0000337D    B1071C                         	LDB   _AL,#07h
00003380    C70125011C                     	STB   _AL,code_av
;004894                                                    if (on_ta(8) != 0)
00003385    B1081C                         	LDB   _AL,#08h
00003388    EF75CC                         	LCALL on_ta
0000338B    88001C                         	CMP   _AX,0
0000338E    DF08                           	JE    ??_558_ELSE
;004895                                                    {
;004896                                                            code_av = 8;
00003390    B1081C                         	LDB   _AL,#08h
00003393    C70125011C                     	STB   _AL,code_av
;004897                                                    }
                 ??_558_ELSE:
;004898                                            }
                 ??_557_ELSE:
;004899                                    }
                 ??_556_ELSE:
;004901                                    GR10_Y = 1;
00003398    B1011C                         	LDB   _AL,#01h
0000339B    C701E3001C                     	STB   _AL,GR10_Y
;004902                            }
;004903                    }
000033A0    2005                           	SJMP  ??_554_END
                 ??_554_ELSE:
;004905                    {
;004906                            GR10_Y = 0;
000033A2    C701E30000                     	STB   00h,GR10_Y
;004907                    }
                  ??_554_END:
;004912                    if (t_td[8+td4] >= 5)
000033A7    AF01130020                     	LDBZE _CX,td4
000033AC    090220                         	SHL   _CX,#02h
000033AF    A32130001C                     	LD    _AX,(t_td+32)[_CX]
000033B4    A32132001E                     	LD    _BX,(t_td+34)[_CX]
000033B9    AD0020                         	LDBZE _CX,#00h
000033BC    A1A04022                       	LD    _DX,#40A0h
000033C0    EF3DCC                         	LCALL ??FPCMP
000033C3    D602                           	JGE   ??_559_ELSE_BYPASS_33C3
000033C5    209E                           	SJMP  ??_559_ELSE
     ??_559_ELSE_BYPASS_33C3:
;004913                    {
;004914                            if (GR5_Y == 0)
000033C7    B301EE001C                     	LDB   _AL,GR5_Y
000033CC    98001C                         	CMPB  _AL,0
000033CF    DF02                           	JE    ??_559_END_BYPASS_33CF
000033D1    2097                           	SJMP  ??_559_END
      ??_559_END_BYPASS_33CF:
;004915                            {
;004917                                    ta_vozd = 255;
000033D3    B1FF1C                         	LDB   _AL,#0FFh
000033D6    C7012D021C                     	STB   _AL,ta_vozd
;004919                                    if ((tm_1 & 0x10) != 0)
000033DB    B30132021C                     	LDB   _AL,tm_1
000033E0    71101C                         	ANDB  _AL,#10h
000033E3    98001C                         	CMPB  _AL,0
000033E6    DF13                           	JE    ??_561_ELSE
;004920                                    {
;004921                                            if (off_ta(5) != 0)
000033E8    B1051C                         	LDB   _AL,#05h
000033EB    EF12CC                         	LCALL off_ta
000033EE    88001C                         	CMP   _AX,0
000033F1    DF08                           	JE    ??_562_ELSE
;004922                                            {
;004923                                                    code_av = 37;
000033F3    B1251C                         	LDB   _AL,#25h
000033F6    C70125011C                     	STB   _AL,code_av
;004924                                            }
                 ??_562_ELSE:
;004925                                    }
                 ??_561_ELSE:
;004927                                    if ((tm_1 & 0x20) != 0)
000033FB    B30132021C                     	LDB   _AL,tm_1
00003400    71201C                         	ANDB  _AL,#20h
00003403    98001C                         	CMPB  _AL,0
00003406    DF13                           	JE    ??_563_ELSE
;004928                                    {
;004929                                            if (off_ta(6) != 0)
00003408    B1061C                         	LDB   _AL,#06h
0000340B    EFF2CB                         	LCALL off_ta
0000340E    88001C                         	CMP   _AX,0
00003411    DF08                           	JE    ??_564_ELSE
;004930                                            {
;004931                                                    code_av = 38;
00003413    B1261C                         	LDB   _AL,#26h
00003416    C70125011C                     	STB   _AL,code_av
;004932                                            }
                 ??_564_ELSE:
;004933                                    }
                 ??_563_ELSE:
;004936                                    if ((tm_1 & 0x40) != 0)
0000341B    B30132021C                     	LDB   _AL,tm_1
00003420    71401C                         	ANDB  _AL,#40h
00003423    98001C                         	CMPB  _AL,0
00003426    DF13                           	JE    ??_565_ELSE
;004937                                    {
;004938                                            if (off_ta(7) != 0)
00003428    B1071C                         	LDB   _AL,#07h
0000342B    EFD2CB                         	LCALL off_ta
0000342E    88001C                         	CMP   _AX,0
00003431    DF08                           	JE    ??_566_ELSE
;004939                                            {
;004940                                                    code_av = 39;
00003433    B1271C                         	LDB   _AL,#27h
00003436    C70125011C                     	STB   _AL,code_av
;004941                                            }
                 ??_566_ELSE:
;004942                                    }
                 ??_565_ELSE:
;004944                                    if ((tm_1 & 0x80) != 0)
0000343B    B30132021C                     	LDB   _AL,tm_1
00003440    71801C                         	ANDB  _AL,#80h
00003443    98001C                         	CMPB  _AL,0
00003446    DF13                           	JE    ??_567_ELSE
;004945                                    {
;004946                                            if (off_ta(8) != 0)
00003448    B1081C                         	LDB   _AL,#08h
0000344B    EFB2CB                         	LCALL off_ta
0000344E    88001C                         	CMP   _AX,0
00003451    DF08                           	JE    ??_568_ELSE
;004947                                            {
;004948                                                    code_av = 40;
00003453    B1281C                         	LDB   _AL,#28h
00003456    C70125011C                     	STB   _AL,code_av
;004949                                            }
                 ??_568_ELSE:
;004950                                    }
                 ??_567_ELSE:
;004952                                    GR5_Y = 1;
0000345B    B1011C                         	LDB   _AL,#01h
0000345E    C701EE001C                     	STB   _AL,GR5_Y
;004953                            }
;004954                    }
00003463    2005                           	SJMP  ??_559_END
                 ??_559_ELSE:
;004956                    {
;004957                            GR5_Y = 0;
00003465    C701EE0000                     	STB   00h,GR5_Y
;004958                    }
                  ??_559_END:
;004959            }
                 ??_528_ELSE:
          ??_otkaz_read_main:
;004968            if (num_AB == 0)
0000346A    B30115021C                     	LDB   _AL,num_AB
0000346F    98001C                         	CMPB  _AL,0
00003472    D70F                           	JNE   ??_569_ELSE
;004969            {
;004970                    PMLC_select_device(RSV_PDEV, PDEV_1, &PMLC_TASK);
00003474    B1801C                         	LDB   _AL,#80h
00003477    B1011D                         	LDB   _AH,#01h
0000347A    A100001E                       	LD    _BX,#PMLC_TASK
0000347E    EF7FCB                         	LCALL PMLC_select_device
;004971            }
00003481    200C                           	SJMP  ??_569_END
                 ??_569_ELSE:
;004973            {
;004974                    PMLC_select_device(NOM_PDEV, PDEV_1, &PMLC_TASK);
00003483    111C                           	CLRB  _AL
00003485    B1011D                         	LDB   _AH,#01h
00003488    A100001E                       	LD    _BX,#PMLC_TASK
0000348C    EF71CB                         	LCALL PMLC_select_device
;004975            }
                  ??_569_END:
;004978            PMLC_cmd_exec(&PMLC_TASK, ADDR_IO_PORT_1, CMD_READ, 0, &(BCV04R_N.IO_PORT_1));
0000348F    A100001C                       	LD    _AX,#PMLC_TASK
00003493    B1101E                         	LDB   _BL,#10h
00003496    B1081F                         	LDB   _BH,#08h
00003499    1120                           	CLRB  _CL
0000349B    A1820022                       	LD    _DX,#BCV04R_N
0000349F    EF5ECB                         	LCALL PMLC_cmd_exec
;004980            otkaz_data = (~BCV04R_N.IO_PORT_1) & 0xF;
000034A2    B30182001C                     	LDB   _AL,BCV04R_N
000034A7    121C                           	NOTB  _AL
000034A9    710F1C                         	ANDB  _AL,#0Fh
000034AC    C7011E021C                     	STB   _AL,otkaz_data
;004984            if (otkaz_data == 0)
000034B1    98001C                         	CMPB  _AL,0
000034B4    D716                           	JNE   ??_570_ELSE
;004985            {
;004988                    otk_g1 = 0;
000034B6    C7011A0200                     	STB   00h,otk_g1
;004989                    otk_g2 = 0;
000034BB    C7011B0200                     	STB   00h,otk_g2
;004990                    otk_h1 = 0;
000034C0    C7011C0200                     	STB   00h,otk_h1
;004991                    otk_h2 = 0;
000034C5    C7011D0200                     	STB   00h,otk_h2
;004992            }
000034CA    212F                           	SJMP  ??_570_END
                 ??_570_ELSE:
;004994            {
;004998                    if ((otkaz_data & 0x1) != 0)
000034CC    71011C                         	ANDB  _AL,#01h
000034CF    98001C                         	CMPB  _AL,0
000034D2    DF3B                           	JE    ??_571_ELSE
;004999                    {
;005002                            if (otk_g1 == 0)
000034D4    B3011A021C                     	LDB   _AL,otk_g1
000034D9    98001C                         	CMPB  _AL,0
000034DC    D736                           	JNE   ??_571_END
;005003                            {
;005006                                    otk_g1 = 1;
000034DE    B1011C                         	LDB   _AL,#01h
000034E1    C7011A021C                     	STB   _AL,otk_g1
;005010                                    if ((tm_data_5 & 0xF) != 0)
000034E6    B30144021C                     	LDB   _AL,tm_data_5
000034EB    710F1C                         	ANDB  _AL,#0Fh
000034EE    98001C                         	CMPB  _AL,0
000034F1    DF12                           	JE    ??_573_ELSE
;005011                                    {
;005013                                            code_av = 129;
000034F3    B1811C                         	LDB   _AL,#81h
000034F6    C70125011C                     	STB   _AL,code_av
;005015                                            g1_go = 1;
000034FB    B1011C                         	LDB   _AL,#01h
000034FE    C7014B011C                     	STB   _AL,g1_go
;005016                                    }
00003503    200F                           	SJMP  ??_571_END
                 ??_573_ELSE:
;005018                                    {
;005020                                            code_av = 133;
00003505    B1851C                         	LDB   _AL,#85h
00003508    C70125011C                     	STB   _AL,code_av
;005021                                    }
;005022                            }
;005023                    }
0000350D    2005                           	SJMP  ??_571_END
                 ??_571_ELSE:
;005025                    {
;005027                            otk_g1 = 0;
0000350F    C7011A0200                     	STB   00h,otk_g1
;005028                    }
                  ??_571_END:
;005033                    if ((otkaz_data & 0x2) != 0)
00003514    B3011E021C                     	LDB   _AL,otkaz_data
00003519    71021C                         	ANDB  _AL,#02h
0000351C    98001C                         	CMPB  _AL,0
0000351F    DF3B                           	JE    ??_574_ELSE
;005034                    {
;005037                            if (otk_g2 == 0)
00003521    B3011B021C                     	LDB   _AL,otk_g2
00003526    98001C                         	CMPB  _AL,0
00003529    D736                           	JNE   ??_574_END
;005038                            {
;005041                                    otk_g2 = 1;
0000352B    B1011C                         	LDB   _AL,#01h
0000352E    C7011B021C                     	STB   _AL,otk_g2
;005045                                    if                                                                                                                                                                                                                                                                                                                                                                                              ((tm_data_5 & 0xF0) != 0)
00003533    B30144021C                     	LDB   _AL,tm_data_5
00003538    71F01C                         	ANDB  _AL,#0F0h
0000353B    98001C                         	CMPB  _AL,0
0000353E    DF12                           	JE    ??_576_ELSE
;005046                                    {
;005048                                            code_av = 130;
00003540    B1821C                         	LDB   _AL,#82h
00003543    C70125011C                     	STB   _AL,code_av
;005050                                            g2_go = 1;
00003548    B1011C                         	LDB   _AL,#01h
0000354B    C7014C011C                     	STB   _AL,g2_go
;005051                                    }
00003550    200F                           	SJMP  ??_574_END
                 ??_576_ELSE:
;005053                                    {
;005055                                            code_av = 134;
00003552    B1861C                         	LDB   _AL,#86h
00003555    C70125011C                     	STB   _AL,code_av
;005056                                    }
;005057                            }
;005058                    }
0000355A    2005                           	SJMP  ??_574_END
                 ??_574_ELSE:
;005060                    {
;005062                            otk_g2 = 0;
0000355C    C7011B0200                     	STB   00h,otk_g2
;005063                    }
                  ??_574_END:
;005068                    if ((otkaz_data & 0x4) != 0)
00003561    B3011E021C                     	LDB   _AL,otkaz_data
00003566    71041C                         	ANDB  _AL,#04h
00003569    98001C                         	CMPB  _AL,0
0000356C    DF3B                           	JE    ??_577_ELSE
;005069                    {
;005072                            if (otk_h1 == 0)
0000356E    B3011C021C                     	LDB   _AL,otk_h1
00003573    98001C                         	CMPB  _AL,0
00003576    D736                           	JNE   ??_577_END
;005073                            {
;005076                                    otk_h1 = 1;
00003578    B1011C                         	LDB   _AL,#01h
0000357B    C7011C021C                     	STB   _AL,otk_h1
;005080                                    if ((tm_data_6 & 0xF) != 0)
00003580    B30145021C                     	LDB   _AL,tm_data_6
00003585    710F1C                         	ANDB  _AL,#0Fh
00003588    98001C                         	CMPB  _AL,0
0000358B    DF12                           	JE    ??_579_ELSE
;005081                                    {
;005083                                            code_av = 131;
0000358D    B1831C                         	LDB   _AL,#83h
00003590    C70125011C                     	STB   _AL,code_av
;005085                                            h1_go = 1;
00003595    B1011C                         	LDB   _AL,#01h
00003598    C7014F011C                     	STB   _AL,h1_go
;005086                                    }
0000359D    200F                           	SJMP  ??_577_END
                 ??_579_ELSE:
;005088                                    {
;005090                                            code_av = 135;
0000359F    B1871C                         	LDB   _AL,#87h
000035A2    C70125011C                     	STB   _AL,code_av
;005091                                    }
;005092                            }
;005093                    }
000035A7    2005                           	SJMP  ??_577_END
                 ??_577_ELSE:
;005095                    {
;005097                            otk_h1 = 0;
000035A9    C7011C0200                     	STB   00h,otk_h1
;005098                    }
                  ??_577_END:
;005103                    if ((otkaz_data & 0x8) != 0)
000035AE    B3011E021C                     	LDB   _AL,otkaz_data
000035B3    71081C                         	ANDB  _AL,#08h
000035B6    98001C                         	CMPB  _AL,0
000035B9    DF3B                           	JE    ??_580_ELSE
;005104                    {
;005107                            if (otk_h2 == 0)
000035BB    B3011D021C                     	LDB   _AL,otk_h2
000035C0    98001C                         	CMPB  _AL,0
000035C3    D736                           	JNE   ??_580_END
;005108                            {
;005111                                    otk_h2 = 1;
000035C5    B1011C                         	LDB   _AL,#01h
000035C8    C7011D021C                     	STB   _AL,otk_h2
;005115                                    if ((tm_data_6 & 0xF0) != 0)
000035CD    B30145021C                     	LDB   _AL,tm_data_6
000035D2    71F01C                         	ANDB  _AL,#0F0h
000035D5    98001C                         	CMPB  _AL,0
000035D8    DF12                           	JE    ??_582_ELSE
;005116                                    {
;005118                                            code_av = 132;
000035DA    B1841C                         	LDB   _AL,#84h
000035DD    C70125011C                     	STB   _AL,code_av
;005120                                            h2_go = 1;
000035E2    B1011C                         	LDB   _AL,#01h
000035E5    C70150011C                     	STB   _AL,h2_go
;005121                                    }
000035EA    200F                           	SJMP  ??_580_END
                 ??_582_ELSE:
;005123                                    {
;005125                                            code_av = 136;
000035EC    B1881C                         	LDB   _AL,#88h
000035EF    C70125011C                     	STB   _AL,code_av
;005126                                    }
;005127                            }
;005128                    }
000035F4    2005                           	SJMP  ??_580_END
                 ??_580_ELSE:
;005130                    {
;005132                            otk_h2 = 0;
000035F6    C7011D0200                     	STB   00h,otk_h2
;005133                    }
                  ??_580_END:
;005134            }
                  ??_570_END:
       ??_otkaz_execute_main:
;005141            if ((tim_25 == 0) && (tim_25_t == 0) && (tim_25_otk == 0))
000035FB    B3012E021C                     	LDB   _AL,tim_25
00003600    98001C                         	CMPB  _AL,0
00003603    DF02                           	JE    ??_583_ELSE_BYPASS_3603
00003605    21F2                           	SJMP  ??_583_ELSE
     ??_583_ELSE_BYPASS_3603:
00003607    B30130021C                     	LDB   _AL,tim_25_t
0000360C    98001C                         	CMPB  _AL,0
0000360F    DF02                           	JE    ??_583_ELSE_BYPASS_360F
00003611    21E6                           	SJMP  ??_583_ELSE
     ??_583_ELSE_BYPASS_360F:
00003613    B3012F021C                     	LDB   _AL,tim_25_otk
00003618    98001C                         	CMPB  _AL,0
0000361B    DF02                           	JE    ??_583_ELSE_BYPASS_361B
0000361D    21DA                           	SJMP  ??_583_ELSE
     ??_583_ELSE_BYPASS_361B:
;005142            {
;005145                    if (count_otk_g < 4)
0000361F    B3012A011C                     	LDB   _AL,count_otk_g
00003624    99041C                         	CMPB  _AL,#04h
00003627    D302                           	JNC   ??_586_ELSE_BYPASS_3627
00003629    2092                           	SJMP  ??_586_ELSE
     ??_586_ELSE_BYPASS_3627:
;005146                    {
;005150                            if (g1_go == 1)
0000362B    B3014B011C                     	LDB   _AL,g1_go
00003630    99011C                         	CMPB  _AL,#01h
00003633    D73F                           	JNE   ??_587_ELSE
;005151                            {
;005154                                    count_otk_g = count_otk_g + 1;
00003635    B3012A011C                     	LDB   _AL,count_otk_g
0000363A    171C                           	INCB  _AL
0000363C    C7012A011C                     	STB   _AL,count_otk_g
;005157                                    if (count_otk_g < 4)
00003641    99041C                         	CMPB  _AL,#04h
00003644    DB1F                           	JC    ??_588_ELSE
;005158                                    {
;005159                                            ta_vozd = 255;
00003646    B1FF1C                         	LDB   _AL,#0FFh
00003649    C7012D021C                     	STB   _AL,ta_vozd
;005162                                            otkl_kont_g1();
0000364E    EFAFC9                         	LCALL otkl_kont_g1
;005165                                            tim_25_otk = 1;
00003651    B1011C                         	LDB   _AL,#01h
00003654    C7012F021C                     	STB   _AL,tim_25_otk
;005166                                            count_tim_25_otk = 0;
00003659    C3018E0000                     	ST    00h,count_tim_25_otk
;005167                                            finish_25_otk = 0;
0000365E    C701490100                     	STB   00h,finish_25_otk
;005168                                    }
00003663    20F4                           	SJMP  ??_check_ogk_ohk_main
                 ??_588_ELSE:
;005170                                    {
;005171                                            g1_go = 0;
00003665    C7014B0100                     	STB   00h,g1_go
;005174                                            ogk_go = 1;
0000366A    B1011C                         	LDB   _AL,#01h
0000366D    C70118021C                     	STB   _AL,ogk_go
;005175                                    }
;005177                                    goto check_ogk_ohk;
00003672    20E5                           	SJMP  ??_check_ogk_ohk_main
;005178                            }
                 ??_587_ELSE:
;005182                            if (g2_go == 1)
00003674    B3014C011C                     	LDB   _AL,g2_go
00003679    99011C                         	CMPB  _AL,#01h
0000367C    D73F                           	JNE   ??_589_ELSE
;005183                            {
;005186                                    count_otk_g = count_otk_g + 1;
0000367E    B3012A011C                     	LDB   _AL,count_otk_g
00003683    171C                           	INCB  _AL
00003685    C7012A011C                     	STB   _AL,count_otk_g
;005189                                    if (count_otk_g < 4)
0000368A    99041C                         	CMPB  _AL,#04h
0000368D    DB1F                           	JC    ??_590_ELSE
;005190                                    {
;005191                                            ta_vozd = 255;
0000368F    B1FF1C                         	LDB   _AL,#0FFh
00003692    C7012D021C                     	STB   _AL,ta_vozd
;005194                                            otkl_kont_g2();
00003697    EF66C9                         	LCALL otkl_kont_g2
;005197                                            tim_25_otk = 1;
0000369A    B1011C                         	LDB   _AL,#01h
0000369D    C7012F021C                     	STB   _AL,tim_25_otk
;005198                                            count_tim_25_otk = 0;
000036A2    C3018E0000                     	ST    00h,count_tim_25_otk
;005199                                            finish_25_otk = 0;
000036A7    C701490100                     	STB   00h,finish_25_otk
;005200                                    }
000036AC    20AB                           	SJMP  ??_check_ogk_ohk_main
                 ??_590_ELSE:
;005202                                    {
;005203                                            g2_go = 0;
000036AE    C7014C0100                     	STB   00h,g2_go
;005206                                            ogk_go = 1;
000036B3    B1011C                         	LDB   _AL,#01h
000036B6    C70118021C                     	STB   _AL,ogk_go
;005207                                    }
;005209                                    goto check_ogk_ohk;
000036BB    209C                           	SJMP  ??_check_ogk_ohk_main
;005210                            }
                 ??_589_ELSE:
;005211                    }
                 ??_586_ELSE:
;005215                    if (count_otk_h < 4)
000036BD    B3012B011C                     	LDB   _AL,count_otk_h
000036C2    99041C                         	CMPB  _AL,#04h
000036C5    D302                           	JNC   ??_591_ELSE_BYPASS_36C5
000036C7    2090                           	SJMP  ??_591_ELSE
     ??_591_ELSE_BYPASS_36C5:
;005216                    {
;005219                            if (h1_go == 1)
000036C9    B3014F011C                     	LDB   _AL,h1_go
000036CE    99011C                         	CMPB  _AL,#01h
000036D1    D73F                           	JNE   ??_592_ELSE
;005220                            {
;005223                                    count_otk_h = count_otk_h + 1;
000036D3    B3012B011C                     	LDB   _AL,count_otk_h
000036D8    171C                           	INCB  _AL
000036DA    C7012B011C                     	STB   _AL,count_otk_h
;005226                                    if (count_otk_h < 4)
000036DF    99041C                         	CMPB  _AL,#04h
000036E2    DB1F                           	JC    ??_593_ELSE
;005227                                    {
;005228                                            ta_vozd = 255;
000036E4    B1FF1C                         	LDB   _AL,#0FFh
000036E7    C7012D021C                     	STB   _AL,ta_vozd
;005231                                            otkl_kont_h1();
000036EC    EF11C9                         	LCALL otkl_kont_h1
;005234                                            tim_25_otk = 1;
000036EF    B1011C                         	LDB   _AL,#01h
000036F2    C7012F021C                     	STB   _AL,tim_25_otk
;005235                                            count_tim_25_otk = 0;
000036F7    C3018E0000                     	ST    00h,count_tim_25_otk
;005236                                            finish_25_otk = 0;
000036FC    C701490100                     	STB   00h,finish_25_otk
;005237                                    }
00003701    2056                           	SJMP  ??_check_ogk_ohk_main
                 ??_593_ELSE:
;005239                                    {
;005240                                            h1_go = 0;
00003703    C7014F0100                     	STB   00h,h1_go
;005243                                            ohk_go = 1;
00003708    B1011C                         	LDB   _AL,#01h
0000370B    C70119021C                     	STB   _AL,ohk_go
;005244                                    }
;005246                                    goto check_ogk_ohk;
00003710    2047                           	SJMP  ??_check_ogk_ohk_main
;005247                            }
                 ??_592_ELSE:
;005252                            if (h2_go == 1)
00003712    B30150011C                     	LDB   _AL,h2_go
00003717    99011C                         	CMPB  _AL,#01h
0000371A    D73D                           	JNE   ??_594_ELSE
;005253                            {
;005257                                    count_otk_h = count_otk_h + 1;
0000371C    B3012B011C                     	LDB   _AL,count_otk_h
00003721    171C                           	INCB  _AL
00003723    C7012B011C                     	STB   _AL,count_otk_h
;005261                                    if (count_otk_h < 4)
00003728    99041C                         	CMPB  _AL,#04h
0000372B    DB1F                           	JC    ??_595_ELSE
;005262                                    {
;005263                                            ta_vozd = 255;
0000372D    B1FF1C                         	LDB   _AL,#0FFh
00003730    C7012D021C                     	STB   _AL,ta_vozd
;005266                                            otkl_kont_h2();
00003735    EFC8C8                         	LCALL otkl_kont_h2
;005269                                            tim_25_otk = 1;
00003738    B1011C                         	LDB   _AL,#01h
0000373B    C7012F021C                     	STB   _AL,tim_25_otk
;005270                                            count_tim_25_otk = 0;
00003740    C3018E0000                     	ST    00h,count_tim_25_otk
;005271                                            finish_25_otk = 0;
00003745    C701490100                     	STB   00h,finish_25_otk
;005272                                    }
0000374A    200D                           	SJMP  ??_595_END
                 ??_595_ELSE:
;005274                                    {
;005275                                            h2_go = 0;
0000374C    C701500100                     	STB   00h,h2_go
;005278                                            ohk_go = 1;
00003751    B1011C                         	LDB   _AL,#01h
00003754    C70119021C                     	STB   _AL,ohk_go
;005279                                    }
                  ??_595_END:
;005280                            }
                 ??_594_ELSE:
;005281                    }
                 ??_591_ELSE:
       ??_check_ogk_ohk_main:
;005287                    if (ogk_go == 1)
00003759    B30118021C                     	LDB   _AL,ogk_go
0000375E    99011C                         	CMPB  _AL,#01h
00003761    D746                           	JNE   ??_596_ELSE
;005288                    {
;005289                            code_av = 152;
00003763    B1981C                         	LDB   _AL,#98h
00003766    C70125011C                     	STB   _AL,code_av
;005291                            ogk_go = 0;
0000376B    C701180200                     	STB   00h,ogk_go
;005293                            ta_vozd = 255;
00003770    B1FF1C                         	LDB   _AL,#0FFh
00003773    C7012D021C                     	STB   _AL,ta_vozd
;005297                            otkl_kontur_g();
00003778    EF85C8                         	LCALL otkl_kontur_g
;005301                            if (h_fix == 0)
0000377B    B30152011C                     	LDB   _AL,h_fix
00003780    98001C                         	CMPB  _AL,0
00003783    D708                           	JNE   ??_597_ELSE
;005302                            {
;005303                                    h_fix = 0x3;
00003785    B1031C                         	LDB   _AL,#03h
00003788    C70152011C                     	STB   _AL,h_fix
;005304                            }
                 ??_597_ELSE:
;005306                            ta_h = h_fix;
0000378D    C7012B021C                     	STB   _AL,ta_h
;005308                            vent_gh_t = 1;
00003792    B1011C                         	LDB   _AL,#01h
00003795    C7014C021C                     	STB   _AL,vent_gh_t
;005310                            tim_25_t = 1;
0000379A    C70130021C                     	STB   _AL,tim_25_t
;005311                            count_tim_25_t = 0;
0000379F    C301900000                     	ST    00h,count_tim_25_t
;005312                            finish_25_t = 0;
000037A4    C7014A0100                     	STB   00h,finish_25_t
;005313                    }
                 ??_596_ELSE:
;005317                    if (ohk_go == 1)
000037A9    B30119021C                     	LDB   _AL,ohk_go
000037AE    99011C                         	CMPB  _AL,#01h
000037B1    D746                           	JNE   ??_598_ELSE
;005318                    {
;005320                            code_av = 151;
000037B3    B1971C                         	LDB   _AL,#97h
000037B6    C70125011C                     	STB   _AL,code_av
;005322                            ohk_go = 0;
000037BB    C701190200                     	STB   00h,ohk_go
;005324                            ta_vozd = 255;
000037C0    B1FF1C                         	LDB   _AL,#0FFh
000037C3    C7012D021C                     	STB   _AL,ta_vozd
;005328                            otkl_kontur_h();
000037C8    EF35C8                         	LCALL otkl_kontur_h
;005332                            if (g_fix == 0)
000037CB    B3014E011C                     	LDB   _AL,g_fix
000037D0    98001C                         	CMPB  _AL,0
000037D3    D708                           	JNE   ??_599_ELSE
;005333                            {
;005334                                    g_fix = 0x3;
000037D5    B1031C                         	LDB   _AL,#03h
000037D8    C7014E011C                     	STB   _AL,g_fix
;005335                            }
                 ??_599_ELSE:
;005337                            ta_g = g_fix;
000037DD    C7012A021C                     	STB   _AL,ta_g
;005339                            vent_gh_t = 0;
000037E2    C7014C0200                     	STB   00h,vent_gh_t
;005341                            tim_25_t = 1;
000037E7    B1011C                         	LDB   _AL,#01h
000037EA    C70130021C                     	STB   _AL,tim_25_t
;005342                            count_tim_25_t = 0;
000037EF    C301900000                     	ST    00h,count_tim_25_t
;005343                            finish_25_t = 0;
000037F4    C7014A0100                     	STB   00h,finish_25_t
;005344                    }
                 ??_598_ELSE:
;005345            }
                 ??_583_ELSE:
           ??_output_tm_main:
;005350            status_uart = SP_STAT0;
000037F9    C701280200                     	STB   SP_STAT0,status_uart
;005352            if ((status_uart & 0x40) != 0)
000037FE    B30128021C                     	LDB   _AL,status_uart
00003803    71401C                         	ANDB  _AL,#40h
00003806    98001C                         	CMPB  _AL,0
;005353            {
;005354                    goto Yes_uart_data;
00003809    DF03                           	JE    ??_Yes_uart_data_main_BYPASS_3809
0000380B    E754D8                         	LJMP  ??_Yes_uart_data_main
??_Yes_uart_data_main_BYPASS_3809:
;005355            }
;005360            PMLC_select_device(NOM_PDEV, PDEV_4, &PMLC_TASK);
0000380E    111C                           	CLRB  _AL
00003810    B1041D                         	LDB   _AH,#04h
00003813    A100001E                       	LD    _BX,#PMLC_TASK
00003817    EFE6C7                         	LCALL PMLC_select_device
;005362            if (num_AB == 0)
0000381A    B30115021C                     	LDB   _AL,num_AB
0000381F    98001C                         	CMPB  _AL,0
00003822    D740                           	JNE   ??_601_ELSE
;005363            {
;005364                    PMLC_cmd_exec(&PMLC_TASK, ADDR_IO_PORT_2, CMD_READ, 0x00, &(BTA06R_AN.IO_PORT_2));
00003824    A100001C                       	LD    _AX,#PMLC_TASK
00003828    B1201E                         	LDB   _BL,#20h
0000382B    B1081F                         	LDB   _BH,#08h
0000382E    1120                           	CLRB  _CL
00003830    A1020022                       	LD    _DX,#(BTA06R_AN+2)
00003834    EFC9C7                         	LCALL PMLC_cmd_exec
;005365                    tm_data_1 = ~BTA06R_AN.IO_PORT_2;
00003837    B30102001C                     	LDB   _AL,(BTA06R_AN+2)
0000383C    121C                           	NOTB  _AL
0000383E    C70140021C                     	STB   _AL,tm_data_1
;005367                    PMLC_cmd_exec(&PMLC_TASK, ADDR_IO_PORT_3, CMD_READ, 0x00, &(BTA06R_AN.IO_PORT_3));
00003843    A100001C                       	LD    _AX,#PMLC_TASK
00003847    B1301E                         	LDB   _BL,#30h
0000384A    B1081F                         	LDB   _BH,#08h
0000384D    1120                           	CLRB  _CL
0000384F    A1030022                       	LD    _DX,#(BTA06R_AN+3)
00003853    EFAAC7                         	LCALL PMLC_cmd_exec
;005368                    tm_data_2 = ~BTA06R_AN.IO_PORT_3;
00003856    B30103001C                     	LDB   _AL,(BTA06R_AN+3)
0000385B    121C                           	NOTB  _AL
0000385D    C70141021C                     	STB   _AL,tm_data_2
;005369            }
00003862    203E                           	SJMP  ??_601_END
                 ??_601_ELSE:
;005371            {
;005372                    PMLC_cmd_exec(&PMLC_TASK, ADDR_IO_PORT_2, CMD_READ, 0x00, &(BTA06R_AN.IO_PORT_2));
00003864    A100001C                       	LD    _AX,#PMLC_TASK
00003868    B1201E                         	LDB   _BL,#20h
0000386B    B1081F                         	LDB   _BH,#08h
0000386E    1120                           	CLRB  _CL
00003870    A1020022                       	LD    _DX,#(BTA06R_AN+2)
00003874    EF89C7                         	LCALL PMLC_cmd_exec
;005373                    tm_data_3 = ~BTA06R_AN.IO_PORT_2;
00003877    B30102001C                     	LDB   _AL,(BTA06R_AN+2)
0000387C    121C                           	NOTB  _AL
0000387E    C70142021C                     	STB   _AL,tm_data_3
;005375                    PMLC_cmd_exec(&PMLC_TASK, ADDR_IO_PORT_3, CMD_READ, 0x00, &(BTA06R_AN.IO_PORT_3));
00003883    A100001C                       	LD    _AX,#PMLC_TASK
00003887    B1301E                         	LDB   _BL,#30h
0000388A    B1081F                         	LDB   _BH,#08h
0000388D    1120                           	CLRB  _CL
0000388F    A1030022                       	LD    _DX,#(BTA06R_AN+3)
00003893    EF6AC7                         	LCALL PMLC_cmd_exec
;005376                    tm_data_4 = ~BTA06R_AN.IO_PORT_3;
00003896    B30103001C                     	LDB   _AL,(BTA06R_AN+3)
0000389B    121C                           	NOTB  _AL
0000389D    C70143021C                     	STB   _AL,tm_data_4
;005377            }
                  ??_601_END:
;005381            PMLC_select_device(RSV_PDEV, PDEV_4, &PMLC_TASK);
000038A2    B1801C                         	LDB   _AL,#80h
000038A5    B1041D                         	LDB   _AH,#04h
000038A8    A100001E                       	LD    _BX,#PMLC_TASK
000038AC    EF51C7                         	LCALL PMLC_select_device
;005383            if (num_AB == 0)
000038AF    B30115021C                     	LDB   _AL,num_AB
000038B4    98001C                         	CMPB  _AL,0
000038B7    D740                           	JNE   ??_602_ELSE
;005384            {
;005385                    PMLC_cmd_exec(&PMLC_TASK, ADDR_IO_PORT_2, CMD_READ, 0x00, &(BTA06R_AN.IO_PORT_2));
000038B9    A100001C                       	LD    _AX,#PMLC_TASK
000038BD    B1201E                         	LDB   _BL,#20h
000038C0    B1081F                         	LDB   _BH,#08h
000038C3    1120                           	CLRB  _CL
000038C5    A1020022                       	LD    _DX,#(BTA06R_AN+2)
000038C9    EF34C7                         	LCALL PMLC_cmd_exec
;005386                    tm_data_3 = ~BTA06R_AN.IO_PORT_2;
000038CC    B30102001C                     	LDB   _AL,(BTA06R_AN+2)
000038D1    121C                           	NOTB  _AL
000038D3    C70142021C                     	STB   _AL,tm_data_3
;005388                    PMLC_cmd_exec(&PMLC_TASK, ADDR_IO_PORT_3, CMD_READ, 0x00, &(BTA06R_AN.IO_PORT_3));
000038D8    A100001C                       	LD    _AX,#PMLC_TASK
000038DC    B1301E                         	LDB   _BL,#30h
000038DF    B1081F                         	LDB   _BH,#08h
000038E2    1120                           	CLRB  _CL
000038E4    A1030022                       	LD    _DX,#(BTA06R_AN+3)
000038E8    EF15C7                         	LCALL PMLC_cmd_exec
;005389                    tm_data_4 = ~BTA06R_AN.IO_PORT_3;
000038EB    B30103001C                     	LDB   _AL,(BTA06R_AN+3)
000038F0    121C                           	NOTB  _AL
000038F2    C70143021C                     	STB   _AL,tm_data_4
;005390            }
000038F7    203E                           	SJMP  ??_602_END
                 ??_602_ELSE:
;005392            {
;005393                    PMLC_cmd_exec(&PMLC_TASK, ADDR_IO_PORT_2, CMD_READ, 0x00, &(BTA06R_AN.IO_PORT_2));
000038F9    A100001C                       	LD    _AX,#PMLC_TASK
000038FD    B1201E                         	LDB   _BL,#20h
00003900    B1081F                         	LDB   _BH,#08h
00003903    1120                           	CLRB  _CL
00003905    A1020022                       	LD    _DX,#(BTA06R_AN+2)
00003909    EFF4C6                         	LCALL PMLC_cmd_exec
;005394                    tm_data_1 = ~BTA06R_AN.IO_PORT_2;
0000390C    B30102001C                     	LDB   _AL,(BTA06R_AN+2)
00003911    121C                           	NOTB  _AL
00003913    C70140021C                     	STB   _AL,tm_data_1
;005396                    PMLC_cmd_exec(&PMLC_TASK, ADDR_IO_PORT_3, CMD_READ, 0x00, &(BTA06R_AN.IO_PORT_3));
00003918    A100001C                       	LD    _AX,#PMLC_TASK
0000391C    B1301E                         	LDB   _BL,#30h
0000391F    B1081F                         	LDB   _BH,#08h
00003922    1120                           	CLRB  _CL
00003924    A1030022                       	LD    _DX,#(BTA06R_AN+3)
00003928    EFD5C6                         	LCALL PMLC_cmd_exec
;005397                    tm_data_2 = ~BTA06R_AN.IO_PORT_3;
0000392B    B30103001C                     	LDB   _AL,(BTA06R_AN+3)
00003930    121C                           	NOTB  _AL
00003932    C70141021C                     	STB   _AL,tm_data_2
;005398            }
                  ??_602_END:
;005401            if (num_AB == 0)
00003937    B30115021C                     	LDB   _AL,num_AB
0000393C    98001C                         	CMPB  _AL,0
0000393F    D70E                           	JNE   ??_603_ELSE
;005402            {
;005403                    PMLC_select_device(NOM_PDEV, PDEV_3, &PMLC_TASK);
00003941    111C                           	CLRB  _AL
00003943    B1031D                         	LDB   _AH,#03h
00003946    A100001E                       	LD    _BX,#PMLC_TASK
0000394A    EFB3C6                         	LCALL PMLC_select_device
;005404            }
0000394D    200D                           	SJMP  ??_603_END
                 ??_603_ELSE:
;005406            {
;005407                    PMLC_select_device(RSV_PDEV, PDEV_3, &PMLC_TASK);
0000394F    B1801C                         	LDB   _AL,#80h
00003952    B1031D                         	LDB   _AH,#03h
00003955    A100001E                       	LD    _BX,#PMLC_TASK
00003959    EFA4C6                         	LCALL PMLC_select_device
;005408            }
                  ??_603_END:
;005410            PMLC_cmd_exec(&PMLC_TASK, ADDR_IO_PORT_2, CMD_READ, 0x00, &(BTA05R_AN.IO_PORT_2));
0000395C    A100001C                       	LD    _AX,#PMLC_TASK
00003960    B1201E                         	LDB   _BL,#20h
00003963    B1081F                         	LDB   _BH,#08h
00003966    1120                           	CLRB  _CL
00003968    A1020022                       	LD    _DX,#(BTA05R_AN+2)
0000396C    EF91C6                         	LCALL PMLC_cmd_exec
;005411            tm_data_5 = ~BTA05R_AN.IO_PORT_2;
0000396F    B30102001C                     	LDB   _AL,(BTA05R_AN+2)
00003974    121C                           	NOTB  _AL
00003976    C70144021C                     	STB   _AL,tm_data_5
;005414            if (num_AB == 0)
0000397B    B30115021C                     	LDB   _AL,num_AB
00003980    98001C                         	CMPB  _AL,0
00003983    D70E                           	JNE   ??_604_ELSE
;005415            {
;005416                    PMLC_select_device(NOM_PDEV, PDEV_2, &PMLC_TASK);
00003985    111C                           	CLRB  _AL
00003987    B1021D                         	LDB   _AH,#02h
0000398A    A100001E                       	LD    _BX,#PMLC_TASK
0000398E    EF6FC6                         	LCALL PMLC_select_device
;005417            }
00003991    200D                           	SJMP  ??_604_END
                 ??_604_ELSE:
;005419            {
;005420                    PMLC_select_device(RSV_PDEV, PDEV_2, &PMLC_TASK);
00003993    B1801C                         	LDB   _AL,#80h
00003996    B1021D                         	LDB   _AH,#02h
00003999    A100001E                       	LD    _BX,#PMLC_TASK
0000399D    EF60C6                         	LCALL PMLC_select_device
;005421            }
                  ??_604_END:
;005424            PMLC_cmd_exec(&PMLC_TASK, ADDR_IO_PORT_2, CMD_READ, 0x00, &(BTA05R_AN.IO_PORT_2));
000039A0    A100001C                       	LD    _AX,#PMLC_TASK
000039A4    B1201E                         	LDB   _BL,#20h
000039A7    B1081F                         	LDB   _BH,#08h
000039AA    1120                           	CLRB  _CL
000039AC    A1020022                       	LD    _DX,#(BTA05R_AN+2)
000039B0    EF4DC6                         	LCALL PMLC_cmd_exec
;005425            tm_data_6 = ~BTA05R_AN.IO_PORT_2;
000039B3    B30102001C                     	LDB   _AL,(BTA05R_AN+2)
000039B8    121C                           	NOTB  _AL
000039BA    C70145021C                     	STB   _AL,tm_data_6
;005428            if (num_AB == 0)
000039BF    B30115021C                     	LDB   _AL,num_AB
000039C4    98001C                         	CMPB  _AL,0
000039C7    D70F                           	JNE   ??_605_ELSE
;005429            {
;005430                    PMLC_select_device(RSV_PDEV, PDEV_2, &PMLC_TASK);
000039C9    B1801C                         	LDB   _AL,#80h
000039CC    B1021D                         	LDB   _AH,#02h
000039CF    A100001E                       	LD    _BX,#PMLC_TASK
000039D3    EF2AC6                         	LCALL PMLC_select_device
;005431            }
000039D6    200C                           	SJMP  ??_605_END
                 ??_605_ELSE:
;005433            {
;005434                    PMLC_select_device(NOM_PDEV, PDEV_2, &PMLC_TASK);
000039D8    111C                           	CLRB  _AL
000039DA    B1021D                         	LDB   _AH,#02h
000039DD    A100001E                       	LD    _BX,#PMLC_TASK
000039E1    EF1CC6                         	LCALL PMLC_select_device
;005435            }
                  ??_605_END:
;005437            PMLC_cmd_exec(&PMLC_TASK, ADDR_IO_PORT_2, CMD_READ, 0x00, &(BTA05R_AN.IO_PORT_2));
000039E4    A100001C                       	LD    _AX,#PMLC_TASK
000039E8    B1201E                         	LDB   _BL,#20h
000039EB    B1081F                         	LDB   _BH,#08h
000039EE    1120                           	CLRB  _CL
000039F0    A1020022                       	LD    _DX,#(BTA05R_AN+2)
000039F4    EF09C6                         	LCALL PMLC_cmd_exec
;005438            tm_data_7 = ~BTA05R_AN.IO_PORT_2;
000039F7    B30102001C                     	LDB   _AL,(BTA05R_AN+2)
000039FC    121C                           	NOTB  _AL
000039FE    C70146021C                     	STB   _AL,tm_data_7
;005441            if (num_AB == 0)
00003A03    B30115021C                     	LDB   _AL,num_AB
00003A08    98001C                         	CMPB  _AL,0
00003A0B    D70F                           	JNE   ??_606_ELSE
;005442            {
;005443                    PMLC_select_device(RSV_PDEV, PDEV_3, &PMLC_TASK);
00003A0D    B1801C                         	LDB   _AL,#80h
00003A10    B1031D                         	LDB   _AH,#03h
00003A13    A100001E                       	LD    _BX,#PMLC_TASK
00003A17    EFE6C5                         	LCALL PMLC_select_device
;005444            }
00003A1A    200C                           	SJMP  ??_606_END
                 ??_606_ELSE:
;005446            {
;005447                    PMLC_select_device(NOM_PDEV, PDEV_3, &PMLC_TASK);
00003A1C    111C                           	CLRB  _AL
00003A1E    B1031D                         	LDB   _AH,#03h
00003A21    A100001E                       	LD    _BX,#PMLC_TASK
00003A25    EFD8C5                         	LCALL PMLC_select_device
;005448            }
                  ??_606_END:
;005450            PMLC_cmd_exec(&PMLC_TASK, ADDR_IO_PORT_2, CMD_READ, 0x00, &(BTA05R_AN.IO_PORT_2));
00003A28    A100001C                       	LD    _AX,#PMLC_TASK
00003A2C    B1201E                         	LDB   _BL,#20h
00003A2F    B1081F                         	LDB   _BH,#08h
00003A32    1120                           	CLRB  _CL
00003A34    A1020022                       	LD    _DX,#(BTA05R_AN+2)
00003A38    EFC5C5                         	LCALL PMLC_cmd_exec
;005451            tm_data_8 = ~BTA05R_AN.IO_PORT_2;
00003A3B    B30102001C                     	LDB   _AL,(BTA05R_AN+2)
00003A40    121C                           	NOTB  _AL
00003A42    C70147021C                     	STB   _AL,tm_data_8
;005457            tsk_1 = 0;
00003A47    C701490200                     	STB   00h,tsk_1
;005461            if ((tm_data_5 & 0xA) != 0)
00003A4C    B30144021C                     	LDB   _AL,tm_data_5
00003A51    710A1C                         	ANDB  _AL,#0Ah
00003A54    98001C                         	CMPB  _AL,0
00003A57    DF0C                           	JE    ??_607_ELSE
;005462            {
;005463                    tsk_1 = tsk_1 + 1;
00003A59    B30149021C                     	LDB   _AL,tsk_1
00003A5E    171C                           	INCB  _AL
00003A60    C70149021C                     	STB   _AL,tsk_1
;005464            }
                 ??_607_ELSE:
;005466            if ((tm_data_5 & 0xA0) != 0)
00003A65    B30144021C                     	LDB   _AL,tm_data_5
00003A6A    71A01C                         	ANDB  _AL,#0A0h
00003A6D    98001C                         	CMPB  _AL,0
00003A70    DF0D                           	JE    ??_608_ELSE
;005467            {
;005468                    tsk_1 = tsk_1 + 2;
00003A72    B30149021C                     	LDB   _AL,tsk_1
00003A77    75021C                         	ADDB  _AL,#02h
00003A7A    C70149021C                     	STB   _AL,tsk_1
;005469            }
                 ??_608_ELSE:
;005473            if ((tm_data_6 & 0xA) != 0)
00003A7F    B30145021C                     	LDB   _AL,tm_data_6
00003A84    710A1C                         	ANDB  _AL,#0Ah
00003A87    98001C                         	CMPB  _AL,0
00003A8A    DF0D                           	JE    ??_609_ELSE
;005474            {
;005475                    tsk_1 = tsk_1 + 4;
00003A8C    B30149021C                     	LDB   _AL,tsk_1
00003A91    75041C                         	ADDB  _AL,#04h
00003A94    C70149021C                     	STB   _AL,tsk_1
;005476            }
                 ??_609_ELSE:
;005478            if ((tm_data_6 & 0xA0) != 0)
00003A99    B30145021C                     	LDB   _AL,tm_data_6
00003A9E    71A01C                         	ANDB  _AL,#0A0h
00003AA1    98001C                         	CMPB  _AL,0
00003AA4    DF0D                           	JE    ??_610_ELSE
;005479            {
;005480                    tsk_1 = tsk_1 + 8;
00003AA6    B30149021C                     	LDB   _AL,tsk_1
00003AAB    75081C                         	ADDB  _AL,#08h
00003AAE    C70149021C                     	STB   _AL,tsk_1
;005481            }
                 ??_610_ELSE:
;005485            if ((tm_data_7 & 0xA) != 0)
00003AB3    B30146021C                     	LDB   _AL,tm_data_7
00003AB8    710A1C                         	ANDB  _AL,#0Ah
00003ABB    98001C                         	CMPB  _AL,0
00003ABE    DF0D                           	JE    ??_611_ELSE
;005486            {
;005487                    tsk_1 = tsk_1 + 16;
00003AC0    B30149021C                     	LDB   _AL,tsk_1
00003AC5    75101C                         	ADDB  _AL,#10h
00003AC8    C70149021C                     	STB   _AL,tsk_1
;005488            }
                 ??_611_ELSE:
;005492            if ((tm_data_8 & 0xA) != 0)
00003ACD    B30147021C                     	LDB   _AL,tm_data_8
00003AD2    710A1C                         	ANDB  _AL,#0Ah
00003AD5    98001C                         	CMPB  _AL,0
00003AD8    DF0D                           	JE    ??_612_ELSE
;005493            {
;005494                    tsk_1 = tsk_1 + 32;
00003ADA    B30149021C                     	LDB   _AL,tsk_1
00003ADF    75201C                         	ADDB  _AL,#20h
00003AE2    C70149021C                     	STB   _AL,tsk_1
;005495            }
                 ??_612_ELSE:
;005499            if ((tm_data_8 & 0xA0) != 0)
00003AE7    B30147021C                     	LDB   _AL,tm_data_8
00003AEC    71A01C                         	ANDB  _AL,#0A0h
00003AEF    98001C                         	CMPB  _AL,0
00003AF2    DF0D                           	JE    ??_613_ELSE
;005500            {
;005501                    tsk_1 = tsk_1 + 64;
00003AF4    B30149021C                     	LDB   _AL,tsk_1
00003AF9    75401C                         	ADDB  _AL,#40h
00003AFC    C70149021C                     	STB   _AL,tsk_1
;005502            }
                 ??_613_ELSE:
;005506            if ((tm_data_1 & 0xA) != 0)
00003B01    B30140021C                     	LDB   _AL,tm_data_1
00003B06    710A1C                         	ANDB  _AL,#0Ah
00003B09    98001C                         	CMPB  _AL,0
00003B0C    DF0D                           	JE    ??_614_ELSE
;005507            {
;005508                    tsk_1 = tsk_1 + 128;
00003B0E    B30149021C                     	LDB   _AL,tsk_1
00003B13    75801C                         	ADDB  _AL,#80h
00003B16    C70149021C                     	STB   _AL,tsk_1
;005509            }
                 ??_614_ELSE:
;005512            tsk_2 = 0;
00003B1B    C7014A0200                     	STB   00h,tsk_2
;005516            if ((tm_data_1 & 0xA0) != 0)
00003B20    B30140021C                     	LDB   _AL,tm_data_1
00003B25    71A01C                         	ANDB  _AL,#0A0h
00003B28    98001C                         	CMPB  _AL,0
00003B2B    DF0C                           	JE    ??_615_ELSE
;005517            {
;005518                    tsk_2 = tsk_2 + 1;
00003B2D    B3014A021C                     	LDB   _AL,tsk_2
00003B32    171C                           	INCB  _AL
00003B34    C7014A021C                     	STB   _AL,tsk_2
;005519            }
                 ??_615_ELSE:
;005523            if ((tm_data_2 & 0xA) != 0)
00003B39    B30141021C                     	LDB   _AL,tm_data_2
00003B3E    710A1C                         	ANDB  _AL,#0Ah
00003B41    98001C                         	CMPB  _AL,0
00003B44    DF0D                           	JE    ??_616_ELSE
;005524            {
;005525                    tsk_2 = tsk_2 + 2;
00003B46    B3014A021C                     	LDB   _AL,tsk_2
00003B4B    75021C                         	ADDB  _AL,#02h
00003B4E    C7014A021C                     	STB   _AL,tsk_2
;005526            }
                 ??_616_ELSE:
;005530            if ((tm_data_2 & 0xA0) != 0)
00003B53    B30141021C                     	LDB   _AL,tm_data_2
00003B58    71A01C                         	ANDB  _AL,#0A0h
00003B5B    98001C                         	CMPB  _AL,0
00003B5E    DF0D                           	JE    ??_617_ELSE
;005531            {
;005532                    tsk_2 = tsk_2 + 4;
00003B60    B3014A021C                     	LDB   _AL,tsk_2
00003B65    75041C                         	ADDB  _AL,#04h
00003B68    C7014A021C                     	STB   _AL,tsk_2
;005533            }
                 ??_617_ELSE:
;005537            if ((tm_data_3 & 0xA) != 0)
00003B6D    B30142021C                     	LDB   _AL,tm_data_3
00003B72    710A1C                         	ANDB  _AL,#0Ah
00003B75    98001C                         	CMPB  _AL,0
00003B78    DF0D                           	JE    ??_618_ELSE
;005538            {
;005539                    tsk_2 = tsk_2 + 8;
00003B7A    B3014A021C                     	LDB   _AL,tsk_2
00003B7F    75081C                         	ADDB  _AL,#08h
00003B82    C7014A021C                     	STB   _AL,tsk_2
;005540            }
                 ??_618_ELSE:
;005545            if ((tm_data_3 & 0xA0) != 0)
00003B87    B30142021C                     	LDB   _AL,tm_data_3
00003B8C    71A01C                         	ANDB  _AL,#0A0h
00003B8F    98001C                         	CMPB  _AL,0
00003B92    DF0D                           	JE    ??_619_ELSE
;005546            {
;005547                    tsk_2 = tsk_2 + 16;
00003B94    B3014A021C                     	LDB   _AL,tsk_2
00003B99    75101C                         	ADDB  _AL,#10h
00003B9C    C7014A021C                     	STB   _AL,tsk_2
;005548            }
                 ??_619_ELSE:
;005552            if ((tm_data_4 & 0xA) != 0)
00003BA1    B30143021C                     	LDB   _AL,tm_data_4
00003BA6    710A1C                         	ANDB  _AL,#0Ah
00003BA9    98001C                         	CMPB  _AL,0
00003BAC    DF0D                           	JE    ??_620_ELSE
;005553            {
;005554                    tsk_2 = tsk_2 + 32;
00003BAE    B3014A021C                     	LDB   _AL,tsk_2
00003BB3    75201C                         	ADDB  _AL,#20h
00003BB6    C7014A021C                     	STB   _AL,tsk_2
;005555            }
                 ??_620_ELSE:
;005562            tm_1 = 0;
00003BBB    C701320200                     	STB   00h,tm_1
;005566            if ((tm_data_1 & 0x3) == 0x3)
00003BC0    B30140021C                     	LDB   _AL,tm_data_1
00003BC5    121C                           	NOTB  _AL
00003BC7    71031C                         	ANDB  _AL,#03h
00003BCA    98001C                         	CMPB  _AL,0
00003BCD    D70C                           	JNE   ??_621_ELSE
;005567            {
;005568                    tm_1 = tm_1 + 1;
00003BCF    B30132021C                     	LDB   _AL,tm_1
00003BD4    171C                           	INCB  _AL
00003BD6    C70132021C                     	STB   _AL,tm_1
;005569            }
                 ??_621_ELSE:
;005573            if ((tm_data_1 & 0xC) == 0xC)
00003BDB    B30140021C                     	LDB   _AL,tm_data_1
00003BE0    121C                           	NOTB  _AL
00003BE2    710C1C                         	ANDB  _AL,#0Ch
00003BE5    98001C                         	CMPB  _AL,0
00003BE8    D70D                           	JNE   ??_622_ELSE
;005574            {
;005575                    tm_1 = tm_1 + 2;
00003BEA    B30132021C                     	LDB   _AL,tm_1
00003BEF    75021C                         	ADDB  _AL,#02h
00003BF2    C70132021C                     	STB   _AL,tm_1
;005576            }
                 ??_622_ELSE:
;005580            if ((tm_data_1 & 0x30) == 0x30)
00003BF7    B30140021C                     	LDB   _AL,tm_data_1
00003BFC    121C                           	NOTB  _AL
00003BFE    71301C                         	ANDB  _AL,#30h
00003C01    98001C                         	CMPB  _AL,0
00003C04    D70D                           	JNE   ??_623_ELSE
;005581            {
;005582                    tm_1 = tm_1 + 4;
00003C06    B30132021C                     	LDB   _AL,tm_1
00003C0B    75041C                         	ADDB  _AL,#04h
00003C0E    C70132021C                     	STB   _AL,tm_1
;005583            }
                 ??_623_ELSE:
;005587            if ((tm_data_1 & 0xC0) == 0xC0)
00003C13    B30140021C                     	LDB   _AL,tm_data_1
00003C18    121C                           	NOTB  _AL
00003C1A    71C01C                         	ANDB  _AL,#0C0h
00003C1D    98001C                         	CMPB  _AL,0
00003C20    D70D                           	JNE   ??_624_ELSE
;005588            {
;005589                    tm_1 = tm_1 + 8;
00003C22    B30132021C                     	LDB   _AL,tm_1
00003C27    75081C                         	ADDB  _AL,#08h
00003C2A    C70132021C                     	STB   _AL,tm_1
;005590            }
                 ??_624_ELSE:
;005596            if ((tm_data_2 & 0x3) == 0x3)
00003C2F    B30141021C                     	LDB   _AL,tm_data_2
00003C34    121C                           	NOTB  _AL
00003C36    71031C                         	ANDB  _AL,#03h
00003C39    98001C                         	CMPB  _AL,0
00003C3C    D70D                           	JNE   ??_625_ELSE
;005597            {
;005598                    tm_1 = tm_1 + 16;
00003C3E    B30132021C                     	LDB   _AL,tm_1
00003C43    75101C                         	ADDB  _AL,#10h
00003C46    C70132021C                     	STB   _AL,tm_1
;005599            }
                 ??_625_ELSE:
;005603            if ((tm_data_2 & 0xC) == 0xC)
00003C4B    B30141021C                     	LDB   _AL,tm_data_2
00003C50    121C                           	NOTB  _AL
00003C52    710C1C                         	ANDB  _AL,#0Ch
00003C55    98001C                         	CMPB  _AL,0
00003C58    D70D                           	JNE   ??_626_ELSE
;005604            {
;005605                    tm_1 = tm_1 + 32;
00003C5A    B30132021C                     	LDB   _AL,tm_1
00003C5F    75201C                         	ADDB  _AL,#20h
00003C62    C70132021C                     	STB   _AL,tm_1
;005606            }
                 ??_626_ELSE:
;005610            if ((tm_data_2 & 0x30) == 0x30)
00003C67    B30141021C                     	LDB   _AL,tm_data_2
00003C6C    121C                           	NOTB  _AL
00003C6E    71301C                         	ANDB  _AL,#30h
00003C71    98001C                         	CMPB  _AL,0
00003C74    D70D                           	JNE   ??_627_ELSE
;005611            {
;005612                    tm_1 = tm_1 + 64;
00003C76    B30132021C                     	LDB   _AL,tm_1
00003C7B    75401C                         	ADDB  _AL,#40h
00003C7E    C70132021C                     	STB   _AL,tm_1
;005613            }
                 ??_627_ELSE:
;005617            if ((tm_data_2 & 0xC0) == 0xC0)
00003C83    B30141021C                     	LDB   _AL,tm_data_2
00003C88    121C                           	NOTB  _AL
00003C8A    71C01C                         	ANDB  _AL,#0C0h
00003C8D    98001C                         	CMPB  _AL,0
00003C90    D70D                           	JNE   ??_628_ELSE
;005618            {
;005619                    tm_1 = tm_1 + 128;
00003C92    B30132021C                     	LDB   _AL,tm_1
00003C97    75801C                         	ADDB  _AL,#80h
00003C9A    C70132021C                     	STB   _AL,tm_1
;005620            }
                 ??_628_ELSE:
;005625            tm_2 = 0;
00003C9F    C701350200                     	STB   00h,tm_2
;005631            if ((tm_data_3 & 0x3) == 0x3)
00003CA4    B30142021C                     	LDB   _AL,tm_data_3
00003CA9    121C                           	NOTB  _AL
00003CAB    71031C                         	ANDB  _AL,#03h
00003CAE    98001C                         	CMPB  _AL,0
00003CB1    D70C                           	JNE   ??_629_ELSE
;005632            {
;005633                    tm_2 = tm_2 + 1;
00003CB3    B30135021C                     	LDB   _AL,tm_2
00003CB8    171C                           	INCB  _AL
00003CBA    C70135021C                     	STB   _AL,tm_2
;005634            }
                 ??_629_ELSE:
;005638            if ((tm_data_3 & 0xC) == 0xC)
00003CBF    B30142021C                     	LDB   _AL,tm_data_3
00003CC4    121C                           	NOTB  _AL
00003CC6    710C1C                         	ANDB  _AL,#0Ch
00003CC9    98001C                         	CMPB  _AL,0
00003CCC    D70D                           	JNE   ??_630_ELSE
;005639            {
;005640                    tm_2 = tm_2 + 2;
00003CCE    B30135021C                     	LDB   _AL,tm_2
00003CD3    75021C                         	ADDB  _AL,#02h
00003CD6    C70135021C                     	STB   _AL,tm_2
;005641            }
                 ??_630_ELSE:
;005645            if ((tm_data_3 & 0x30) == 0x30)
00003CDB    B30142021C                     	LDB   _AL,tm_data_3
00003CE0    121C                           	NOTB  _AL
00003CE2    71301C                         	ANDB  _AL,#30h
00003CE5    98001C                         	CMPB  _AL,0
00003CE8    D70D                           	JNE   ??_631_ELSE
;005646            {
;005647                    tm_2 = tm_2 + 4;
00003CEA    B30135021C                     	LDB   _AL,tm_2
00003CEF    75041C                         	ADDB  _AL,#04h
00003CF2    C70135021C                     	STB   _AL,tm_2
;005648            }
                 ??_631_ELSE:
;005652            if ((tm_data_3 & 0xC0) == 0xC0)
00003CF7    B30142021C                     	LDB   _AL,tm_data_3
00003CFC    121C                           	NOTB  _AL
00003CFE    71C01C                         	ANDB  _AL,#0C0h
00003D01    98001C                         	CMPB  _AL,0
00003D04    D70D                           	JNE   ??_632_ELSE
;005653            {
;005654                    tm_2 = tm_2 + 8;
00003D06    B30135021C                     	LDB   _AL,tm_2
00003D0B    75081C                         	ADDB  _AL,#08h
00003D0E    C70135021C                     	STB   _AL,tm_2
;005655            }
                 ??_632_ELSE:
;005661            if ((tm_data_4 & 0x3) == 0x3)
00003D13    B30143021C                     	LDB   _AL,tm_data_4
00003D18    121C                           	NOTB  _AL
00003D1A    71031C                         	ANDB  _AL,#03h
00003D1D    98001C                         	CMPB  _AL,0
00003D20    D70D                           	JNE   ??_633_ELSE
;005662            {
;005663                    tm_2 = tm_2 + 16;
00003D22    B30135021C                     	LDB   _AL,tm_2
00003D27    75101C                         	ADDB  _AL,#10h
00003D2A    C70135021C                     	STB   _AL,tm_2
;005664            }
                 ??_633_ELSE:
;005668            if ((tm_data_4 & 0xC) == 0xC)
00003D2F    B30143021C                     	LDB   _AL,tm_data_4
00003D34    121C                           	NOTB  _AL
00003D36    710C1C                         	ANDB  _AL,#0Ch
00003D39    98001C                         	CMPB  _AL,0
00003D3C    D70D                           	JNE   ??_634_ELSE
;005669            {
;005670                    tm_2 = tm_2 + 32;
00003D3E    B30135021C                     	LDB   _AL,tm_2
00003D43    75201C                         	ADDB  _AL,#20h
00003D46    C70135021C                     	STB   _AL,tm_2
;005671            }
                 ??_634_ELSE:
;005675            if ((tm_data_7 & 0x30) == 0x30)
00003D4B    B30146021C                     	LDB   _AL,tm_data_7
00003D50    121C                           	NOTB  _AL
00003D52    71301C                         	ANDB  _AL,#30h
00003D55    98001C                         	CMPB  _AL,0
00003D58    D70D                           	JNE   ??_635_ELSE
;005676            {
;005677                    tm_2 = tm_2 + 64;
00003D5A    B30135021C                     	LDB   _AL,tm_2
00003D5F    75401C                         	ADDB  _AL,#40h
00003D62    C70135021C                     	STB   _AL,tm_2
;005678            }
                 ??_635_ELSE:
;005682            if ((tm_data_7 & 0xC0) == 0xC0)
00003D67    B30146021C                     	LDB   _AL,tm_data_7
00003D6C    121C                           	NOTB  _AL
00003D6E    71C01C                         	ANDB  _AL,#0C0h
00003D71    98001C                         	CMPB  _AL,0
00003D74    D70D                           	JNE   ??_636_ELSE
;005683            {
;005684                    tm_2 = tm_2 + 128;
00003D76    B30135021C                     	LDB   _AL,tm_2
00003D7B    75801C                         	ADDB  _AL,#80h
00003D7E    C70135021C                     	STB   _AL,tm_2
;005685            }
                 ??_636_ELSE:
;005691            if ((tim_25 != 0) || (tim_25_t != 0) || (tim_25_otk != 0))
00003D83    B3012E021C                     	LDB   _AL,tim_25
00003D88    98001C                         	CMPB  _AL,0
00003D8B    D714                           	JNE   ??_637_IF
00003D8D    B30130021C                     	LDB   _AL,tim_25_t
00003D92    98001C                         	CMPB  _AL,0
00003D95    D70A                           	JNE   ??_637_IF
00003D97    B3012F021C                     	LDB   _AL,tim_25_otk
00003D9C    98001C                         	CMPB  _AL,0
00003D9F    DF03                           	JE    ??_637_ELSE
                   ??_637_IF:
;005692            {
;005693                    goto format_tm4;
00003DA1    E72C04                         	LJMP  ??_format_tm4_main
;005694            }
                 ??_637_ELSE:
;005699            tm_3 = 0;
00003DA4    C701380200                     	STB   00h,tm_3
;005703            if (tm_data_5 != 0)
00003DA9    B30144021C                     	LDB   _AL,tm_data_5
00003DAE    98001C                         	CMPB  _AL,0
00003DB1    D702                           	JNE   ??_640_ELSE_BYPASS_3DB1
00003DB3    2201                           	SJMP  ??_640_ELSE
     ??_640_ELSE_BYPASS_3DB1:
;005704            {
;005707                    if ((tm_data_5 & 0x55) != 0)
00003DB5    71551C                         	ANDB  _AL,#55h
00003DB8    98001C                         	CMPB  _AL,0
00003DBB    D702                           	JNE   ??_641_ELSE_BYPASS_3DBB
00003DBD    2087                           	SJMP  ??_641_ELSE
     ??_641_ELSE_BYPASS_3DBB:
;005708                    {
;005711                            g_fix = (tm_data_5 & 0x55) + ((tm_data_5 & 0x55) <<1);
00003DBF    B30144021C                     	LDB   _AL,tm_data_5
00003DC4    71551C                         	ANDB  _AL,#55h
00003DC7    19011C                         	SHLB  _AL,#01h
00003DCA    B30144021D                     	LDB   _AH,tm_data_5
00003DCF    71551D                         	ANDB  _AH,#55h
00003DD2    741D1C                         	ADDB  _AL,_AH
00003DD5    C7014E011C                     	STB   _AL,g_fix
;005716                            tm_3_dop_g = 0;
00003DDA    C701390200                     	STB   00h,tm_3_dop_g
;005718                            if ((tm_data_5 & 0x1) != 0)
00003DDF    B30144021C                     	LDB   _AL,tm_data_5
00003DE4    71011C                         	ANDB  _AL,#01h
00003DE7    98001C                         	CMPB  _AL,0
00003DEA    DF0C                           	JE    ??_642_ELSE
;005719                            {
;005720                                    tm_3_dop_g = tm_3_dop_g + 1;
00003DEC    B30139021C                     	LDB   _AL,tm_3_dop_g
00003DF1    171C                           	INCB  _AL
00003DF3    C70139021C                     	STB   _AL,tm_3_dop_g
;005721                            }
                 ??_642_ELSE:
;005723                            if ((tm_data_5 & 0x4) != 0)
00003DF8    B30144021C                     	LDB   _AL,tm_data_5
00003DFD    71041C                         	ANDB  _AL,#04h
00003E00    98001C                         	CMPB  _AL,0
00003E03    DF0D                           	JE    ??_643_ELSE
;005724                            {
;005725                                    tm_3_dop_g = tm_3_dop_g + 2;
00003E05    B30139021C                     	LDB   _AL,tm_3_dop_g
00003E0A    75021C                         	ADDB  _AL,#02h
00003E0D    C70139021C                     	STB   _AL,tm_3_dop_g
;005726                            }
                 ??_643_ELSE:
;005728                            if ((tm_data_5 & 0x10) != 0)
00003E12    B30144021C                     	LDB   _AL,tm_data_5
00003E17    71101C                         	ANDB  _AL,#10h
00003E1A    98001C                         	CMPB  _AL,0
00003E1D    DF0D                           	JE    ??_644_ELSE
;005729                            {
;005730                                    tm_3_dop_g = tm_3_dop_g + 4;
00003E1F    B30139021C                     	LDB   _AL,tm_3_dop_g
00003E24    75041C                         	ADDB  _AL,#04h
00003E27    C70139021C                     	STB   _AL,tm_3_dop_g
;005731                            }
                 ??_644_ELSE:
;005733                            if ((tm_data_5 & 0x40) != 0)
00003E2C    B30144021C                     	LDB   _AL,tm_data_5
00003E31    71401C                         	ANDB  _AL,#40h
00003E34    98001C                         	CMPB  _AL,0
00003E37    DF0D                           	JE    ??_645_ELSE
;005734                            {
;005735                                    tm_3_dop_g = tm_3_dop_g + 8;
00003E39    B30139021C                     	LDB   _AL,tm_3_dop_g
00003E3E    75081C                         	ADDB  _AL,#08h
00003E41    C70139021C                     	STB   _AL,tm_3_dop_g
;005736                            }
                 ??_645_ELSE:
;005738                    }
                 ??_641_ELSE:
;005742                    if ((tm_data_5 & 0xA) != 0)
00003E46    B30144021C                     	LDB   _AL,tm_data_5
00003E4B    710A1C                         	ANDB  _AL,#0Ah
00003E4E    98001C                         	CMPB  _AL,0
00003E51    D702                           	JNE   ??_646_ELSE_BYPASS_3E51
00003E53    20A4                           	SJMP  ??_646_ELSE
     ??_646_ELSE_BYPASS_3E51:
;005743                    {
;005745                            if ((tm_data_5 & 0xA) != 0xA)
00003E55    B30144021C                     	LDB   _AL,tm_data_5
00003E5A    121C                           	NOTB  _AL
00003E5C    710A1C                         	ANDB  _AL,#0Ah
00003E5F    98001C                         	CMPB  _AL,0
00003E62    DF37                           	JE    ??_647_ELSE
;005746                            {
;005749                                    if ((tm_data_5 & 0x2) == 0x2)
00003E64    B30144021C                     	LDB   _AL,tm_data_5
00003E69    71021C                         	ANDB  _AL,#02h
00003E6C    98001C                         	CMPB  _AL,0
00003E6F    DF13                           	JE    ??_648_ELSE
;005750                                    {
;005751                                            tm_3 = tm_3 + 1;
00003E71    B30138021C                     	LDB   _AL,tm_3
00003E76    171C                           	INCB  _AL
00003E78    C70138021C                     	STB   _AL,tm_3
;005753                                            hist_tr_g = 0;
00003E7D    C701540100                     	STB   00h,hist_tr_g
;005754                                    }
00003E82    2075                           	SJMP  ??_647_END
                 ??_648_ELSE:
;005756                                    {
;005757                                            tm_3 = tm_3 + 2;
00003E84    B30138021C                     	LDB   _AL,tm_3
00003E89    75021C                         	ADDB  _AL,#02h
00003E8C    C70138021C                     	STB   _AL,tm_3
;005759                                            hist_tr_g = 1;
00003E91    B1011C                         	LDB   _AL,#01h
00003E94    C70154011C                     	STB   _AL,hist_tr_g
;005760                                    }
;005762                            }
00003E99    205E                           	SJMP  ??_647_END
                 ??_647_ELSE:
;005764                            {
;005767                                    if ((tm_data_5 & 0x5) == 0)
00003E9B    B30144021C                     	LDB   _AL,tm_data_5
00003EA0    71051C                         	ANDB  _AL,#05h
00003EA3    98001C                         	CMPB  _AL,0
00003EA6    D711                           	JNE   ??_649_ELSE
;005768                                    {
;005772                                            tm_3 = tm_3_dop_g + tm_3_dop_h;
00003EA8    B30139021C                     	LDB   _AL,tm_3_dop_g
00003EAD    77013A021C                     	ADDB  _AL,tm_3_dop_h
00003EB2    C70138021C                     	STB   _AL,tm_3
;005774                                    }
00003EB7    2040                           	SJMP  ??_649_END
                 ??_649_ELSE:
;005776                                    {
;005780                                            if ((tm_data_5 & 0x1) != 0)
00003EB9    B30144021C                     	LDB   _AL,tm_data_5
00003EBE    71011C                         	ANDB  _AL,#01h
00003EC1    98001C                         	CMPB  _AL,0
00003EC4    DF11                           	JE    ??_650_ELSE
;005781                                            {
;005782                                                    tm_3 = tm_3 + 1;
00003EC6    B30138021C                     	LDB   _AL,tm_3
00003ECB    171C                           	INCB  _AL
00003ECD    C70138021C                     	STB   _AL,tm_3
;005784                                                    hist_tr_g = 0;
00003ED2    C701540100                     	STB   00h,hist_tr_g
;005785                                            }
                 ??_650_ELSE:
;005787                                            if ((tm_data_5 & 0x4) != 0)
00003ED7    B30144021C                     	LDB   _AL,tm_data_5
00003EDC    71041C                         	ANDB  _AL,#04h
00003EDF    98001C                         	CMPB  _AL,0
00003EE2    DF15                           	JE    ??_651_ELSE
;005788                                            {
;005789                                                    tm_3 = tm_3 + 2;
00003EE4    B30138021C                     	LDB   _AL,tm_3
00003EE9    75021C                         	ADDB  _AL,#02h
00003EEC    C70138021C                     	STB   _AL,tm_3
;005791                                                    hist_tr_g = 1;
00003EF1    B1011C                         	LDB   _AL,#01h
00003EF4    C70154011C                     	STB   _AL,hist_tr_g
;005792                                            }
                 ??_651_ELSE:
;005793                                    }
                  ??_649_END:
;005794                            }
                  ??_647_END:
;005795                    }
                 ??_646_ELSE:
;005800                    if ((tm_data_5 & 0xA0) != 0)
00003EF9    B30144021C                     	LDB   _AL,tm_data_5
00003EFE    71A01C                         	ANDB  _AL,#0A0h
00003F01    98001C                         	CMPB  _AL,0
00003F04    D702                           	JNE   ??_640_END_BYPASS_3F04
00003F06    20B3                           	SJMP  ??_640_END
      ??_640_END_BYPASS_3F04:
;005801                    {
;005803                            if ((tm_data_5 & 0xA0) != 0xA0)
00003F08    B30144021C                     	LDB   _AL,tm_data_5
00003F0D    121C                           	NOTB  _AL
00003F0F    71A01C                         	ANDB  _AL,#0A0h
00003F12    98001C                         	CMPB  _AL,0
00003F15    DF3B                           	JE    ??_653_ELSE
;005804                            {
;005807                                    if ((tm_data_5 & 0x20) == 0x20)
00003F17    B30144021C                     	LDB   _AL,tm_data_5
00003F1C    71201C                         	ANDB  _AL,#20h
00003F1F    98001C                         	CMPB  _AL,0
00003F22    DF17                           	JE    ??_654_ELSE
;005808                                    {
;005809                                            tm_3 = tm_3 + 4;
00003F24    B30138021C                     	LDB   _AL,tm_3
00003F29    75041C                         	ADDB  _AL,#04h
00003F2C    C70138021C                     	STB   _AL,tm_3
;005811                                            hist_tr_g = 2;
00003F31    B1021C                         	LDB   _AL,#02h
00003F34    C70154011C                     	STB   _AL,hist_tr_g
;005812                                    }
00003F39    2080                           	SJMP  ??_640_END
                 ??_654_ELSE:
;005814                                    {
;005815                                            tm_3 = tm_3 + 8;
00003F3B    B30138021C                     	LDB   _AL,tm_3
00003F40    75081C                         	ADDB  _AL,#08h
00003F43    C70138021C                     	STB   _AL,tm_3
;005817                                            hist_tr_g = 3;
00003F48    B1031C                         	LDB   _AL,#03h
00003F4B    C70154011C                     	STB   _AL,hist_tr_g
;005818                                    }
;005820                            }
00003F50    2069                           	SJMP  ??_640_END
                 ??_653_ELSE:
;005822                            {
;005825                                    if ((tm_data_5 & 0x50) == 0)
00003F52    B30144021C                     	LDB   _AL,tm_data_5
00003F57    71501C                         	ANDB  _AL,#50h
00003F5A    98001C                         	CMPB  _AL,0
00003F5D    D711                           	JNE   ??_655_ELSE
;005826                                    {
;005830                                            tm_3 = tm_3_dop_g + tm_3_dop_h;
00003F5F    B30139021C                     	LDB   _AL,tm_3_dop_g
00003F64    77013A021C                     	ADDB  _AL,tm_3_dop_h
00003F69    C70138021C                     	STB   _AL,tm_3
;005832                                    }
00003F6E    204B                           	SJMP  ??_640_END
                 ??_655_ELSE:
;005834                                    {
;005835                                            if ((tm_data_5 & 0x10) != 0)
00003F70    B30144021C                     	LDB   _AL,tm_data_5
00003F75    71101C                         	ANDB  _AL,#10h
00003F78    98001C                         	CMPB  _AL,0
00003F7B    DF15                           	JE    ??_656_ELSE
;005836                                            {
;005837                                                    tm_3 = tm_3 + 4;
00003F7D    B30138021C                     	LDB   _AL,tm_3
00003F82    75041C                         	ADDB  _AL,#04h
00003F85    C70138021C                     	STB   _AL,tm_3
;005839                                                    hist_tr_g = 2;
00003F8A    B1021C                         	LDB   _AL,#02h
00003F8D    C70154011C                     	STB   _AL,hist_tr_g
;005840                                            }
                 ??_656_ELSE:
;005842                                            if ((tm_data_5 & 0x40) != 0)
00003F92    B30144021C                     	LDB   _AL,tm_data_5
00003F97    71401C                         	ANDB  _AL,#40h
00003F9A    98001C                         	CMPB  _AL,0
00003F9D    DF1C                           	JE    ??_640_END
;005843                                            {
;005844                                                    tm_3 = tm_3 + 8;
00003F9F    B30138021C                     	LDB   _AL,tm_3
00003FA4    75081C                         	ADDB  _AL,#08h
00003FA7    C70138021C                     	STB   _AL,tm_3
;005846                                                    hist_tr_g = 3;
00003FAC    B1031C                         	LDB   _AL,#03h
00003FAF    C70154011C                     	STB   _AL,hist_tr_g
;005847                                            }
;005848                                    }
;005849                            }
;005850                    }
;005851            }
00003FB4    2005                           	SJMP  ??_640_END
                 ??_640_ELSE:
;005853            {
;005854                    tm_3_dop_g = 0;
00003FB6    C701390200                     	STB   00h,tm_3_dop_g
;005855            }
                  ??_640_END:
;005859            if (tm_data_6 != 0)
00003FBB    B30145021C                     	LDB   _AL,tm_data_6
00003FC0    98001C                         	CMPB  _AL,0
00003FC3    D702                           	JNE   ??_658_ELSE_BYPASS_3FC3
00003FC5    2204                           	SJMP  ??_658_ELSE
     ??_658_ELSE_BYPASS_3FC3:
;005860            {
;005864                    if ((tm_data_6 & 0x55) != 0)
00003FC7    71551C                         	ANDB  _AL,#55h
00003FCA    98001C                         	CMPB  _AL,0
00003FCD    D702                           	JNE   ??_659_ELSE_BYPASS_3FCD
00003FCF    2088                           	SJMP  ??_659_ELSE
     ??_659_ELSE_BYPASS_3FCD:
;005865                    {
;005868                            h_fix = (tm_data_6 & 0x55) + ((tm_data_6 & 0x55) <<1);
00003FD1    B30145021C                     	LDB   _AL,tm_data_6
00003FD6    71551C                         	ANDB  _AL,#55h
00003FD9    19011C                         	SHLB  _AL,#01h
00003FDC    B30145021D                     	LDB   _AH,tm_data_6
00003FE1    71551D                         	ANDB  _AH,#55h
00003FE4    741D1C                         	ADDB  _AL,_AH
00003FE7    C70152011C                     	STB   _AL,h_fix
;005873                            tm_3_dop_h = 0;
00003FEC    C7013A0200                     	STB   00h,tm_3_dop_h
;005875                            if ((tm_data_6 & 0x1) != 0)
00003FF1    B30145021C                     	LDB   _AL,tm_data_6
00003FF6    71011C                         	ANDB  _AL,#01h
00003FF9    98001C                         	CMPB  _AL,0
00003FFC    DF0D                           	JE    ??_660_ELSE
;005876                            {
;005877                                    tm_3_dop_h = tm_3_dop_h + 0x10;
00003FFE    B3013A021C                     	LDB   _AL,tm_3_dop_h
00004003    75101C                         	ADDB  _AL,#10h
00004006    C7013A021C                     	STB   _AL,tm_3_dop_h
;005878                            }
                 ??_660_ELSE:
;005880                            if ((tm_data_6 & 0x4) != 0)
0000400B    B30145021C                     	LDB   _AL,tm_data_6
00004010    71041C                         	ANDB  _AL,#04h
00004013    98001C                         	CMPB  _AL,0
00004016    DF0D                           	JE    ??_661_ELSE
;005881                            {
;005882                                    tm_3_dop_h = tm_3_dop_h + 0x20;
00004018    B3013A021C                     	LDB   _AL,tm_3_dop_h
0000401D    75201C                         	ADDB  _AL,#20h
00004020    C7013A021C                     	STB   _AL,tm_3_dop_h
;005883                            }
                 ??_661_ELSE:
;005885                            if ((tm_data_6 & 0x10) != 0)
00004025    B30145021C                     	LDB   _AL,tm_data_6
0000402A    71101C                         	ANDB  _AL,#10h
0000402D    98001C                         	CMPB  _AL,0
00004030    DF0D                           	JE    ??_662_ELSE
;005886                            {
;005887                                    tm_3_dop_h = tm_3_dop_h + 0x40;
00004032    B3013A021C                     	LDB   _AL,tm_3_dop_h
00004037    75401C                         	ADDB  _AL,#40h
0000403A    C7013A021C                     	STB   _AL,tm_3_dop_h
;005888                            }
                 ??_662_ELSE:
;005890                            if ((tm_data_6 & 0x40) != 0)
0000403F    B30145021C                     	LDB   _AL,tm_data_6
00004044    71401C                         	ANDB  _AL,#40h
00004047    98001C                         	CMPB  _AL,0
0000404A    DF0D                           	JE    ??_663_ELSE
;005891                            {
;005892                                    tm_3_dop_h = tm_3_dop_h + 0x80;
0000404C    B3013A021C                     	LDB   _AL,tm_3_dop_h
00004051    75801C                         	ADDB  _AL,#80h
00004054    C7013A021C                     	STB   _AL,tm_3_dop_h
;005893                            }
                 ??_663_ELSE:
;005894                    }
                 ??_659_ELSE:
;005899                    if ((tm_data_6 & 0xA) != 0)
00004059    B30145021C                     	LDB   _AL,tm_data_6
0000405E    710A1C                         	ANDB  _AL,#0Ah
00004061    98001C                         	CMPB  _AL,0
00004064    D702                           	JNE   ??_664_ELSE_BYPASS_4064
00004066    20A6                           	SJMP  ??_664_ELSE
     ??_664_ELSE_BYPASS_4064:
;005900                    {
;005902                            if ((tm_data_6 & 0xA) != 0xA)
00004068    B30145021C                     	LDB   _AL,tm_data_6
0000406D    121C                           	NOTB  _AL
0000406F    710A1C                         	ANDB  _AL,#0Ah
00004072    98001C                         	CMPB  _AL,0
00004075    DF38                           	JE    ??_665_ELSE
;005903                            {
;005906                                    if ((tm_data_6 & 0x2) == 0x2)
00004077    B30145021C                     	LDB   _AL,tm_data_6
0000407C    71021C                         	ANDB  _AL,#02h
0000407F    98001C                         	CMPB  _AL,0
00004082    DF14                           	JE    ??_666_ELSE
;005907                                    {
;005908                                            tm_3 = tm_3 + 16;
00004084    B30138021C                     	LDB   _AL,tm_3
00004089    75101C                         	ADDB  _AL,#10h
0000408C    C70138021C                     	STB   _AL,tm_3
;005910                                            hist_tr_h = 0;
00004091    C701550100                     	STB   00h,hist_tr_h
;005911                                    }
00004096    2076                           	SJMP  ??_665_END
                 ??_666_ELSE:
;005913                                    {
;005914                                            tm_3 = tm_3 + 32;
00004098    B30138021C                     	LDB   _AL,tm_3
0000409D    75201C                         	ADDB  _AL,#20h
000040A0    C70138021C                     	STB   _AL,tm_3
;005916                                            hist_tr_h = 1;
000040A5    B1011C                         	LDB   _AL,#01h
000040A8    C70155011C                     	STB   _AL,hist_tr_h
;005917                                    }
;005919                            }
000040AD    205F                           	SJMP  ??_665_END
                 ??_665_ELSE:
;005921                            {
;005924                                    if ((tm_data_6 & 0x5) == 0)
000040AF    B30145021C                     	LDB   _AL,tm_data_6
000040B4    71051C                         	ANDB  _AL,#05h
000040B7    98001C                         	CMPB  _AL,0
000040BA    D711                           	JNE   ??_667_ELSE
;005925                                    {
;005929                                            tm_3 = tm_3_dop_g + tm_3_dop_h;
000040BC    B30139021C                     	LDB   _AL,tm_3_dop_g
000040C1    77013A021C                     	ADDB  _AL,tm_3_dop_h
000040C6    C70138021C                     	STB   _AL,tm_3
;005930                                    }
000040CB    2041                           	SJMP  ??_667_END
                 ??_667_ELSE:
;005932                                    {
;005933                                            if ((tm_data_6 & 0x1) != 0)
000040CD    B30145021C                     	LDB   _AL,tm_data_6
000040D2    71011C                         	ANDB  _AL,#01h
000040D5    98001C                         	CMPB  _AL,0
000040D8    DF12                           	JE    ??_668_ELSE
;005934                                            {
;005935                                                    tm_3 = tm_3 + 16;
000040DA    B30138021C                     	LDB   _AL,tm_3
000040DF    75101C                         	ADDB  _AL,#10h
000040E2    C70138021C                     	STB   _AL,tm_3
;005937                                                    hist_tr_h = 0;
000040E7    C701550100                     	STB   00h,hist_tr_h
;005938                                            }
                 ??_668_ELSE:
;005940                                            if ((tm_data_6 & 0x4) != 0)
000040EC    B30145021C                     	LDB   _AL,tm_data_6
000040F1    71041C                         	ANDB  _AL,#04h
000040F4    98001C                         	CMPB  _AL,0
000040F7    DF15                           	JE    ??_669_ELSE
;005941                                            {
;005942                                                    tm_3 = tm_3 + 32;
000040F9    B30138021C                     	LDB   _AL,tm_3
000040FE    75201C                         	ADDB  _AL,#20h
00004101    C70138021C                     	STB   _AL,tm_3
;005944                                                    hist_tr_h = 1;
00004106    B1011C                         	LDB   _AL,#01h
00004109    C70155011C                     	STB   _AL,hist_tr_h
;005945                                            }
                 ??_669_ELSE:
;005946                                    }
                  ??_667_END:
;005947                            }
                  ??_665_END:
;005948                    }
                 ??_664_ELSE:
;005953                    if ((tm_data_6 & 0xA0) != 0)
0000410E    B30145021C                     	LDB   _AL,tm_data_6
00004113    71A01C                         	ANDB  _AL,#0A0h
00004116    98001C                         	CMPB  _AL,0
00004119    D702                           	JNE   ??_658_END_BYPASS_4119
0000411B    20B3                           	SJMP  ??_658_END
      ??_658_END_BYPASS_4119:
;005954                    {
;005956                            if ((tm_data_6 & 0xA0) != 0xA0)
0000411D    B30145021C                     	LDB   _AL,tm_data_6
00004122    121C                           	NOTB  _AL
00004124    71A01C                         	ANDB  _AL,#0A0h
00004127    98001C                         	CMPB  _AL,0
0000412A    DF3B                           	JE    ??_671_ELSE
;005957                            {
;005960                                    if ((tm_data_6 & 0x20) == 0x20)
0000412C    B30145021C                     	LDB   _AL,tm_data_6
00004131    71201C                         	ANDB  _AL,#20h
00004134    98001C                         	CMPB  _AL,0
00004137    DF17                           	JE    ??_672_ELSE
;005961                                    {
;005962                                            tm_3 = tm_3 + 64;
00004139    B30138021C                     	LDB   _AL,tm_3
0000413E    75401C                         	ADDB  _AL,#40h
00004141    C70138021C                     	STB   _AL,tm_3
;005964                                            hist_tr_h = 2;
00004146    B1021C                         	LDB   _AL,#02h
00004149    C70155011C                     	STB   _AL,hist_tr_h
;005965                                    }
0000414E    2080                           	SJMP  ??_658_END
                 ??_672_ELSE:
;005967                                    {
;005968                                            tm_3 = tm_3 + 128;
00004150    B30138021C                     	LDB   _AL,tm_3
00004155    75801C                         	ADDB  _AL,#80h
00004158    C70138021C                     	STB   _AL,tm_3
;005970                                            hist_tr_h = 3;
0000415D    B1031C                         	LDB   _AL,#03h
00004160    C70155011C                     	STB   _AL,hist_tr_h
;005971                                    }
;005973                            }
00004165    2069                           	SJMP  ??_658_END
                 ??_671_ELSE:
;005975                            {
;005978                                    if ((tm_data_6 & 0x50) == 0)
00004167    B30145021C                     	LDB   _AL,tm_data_6
0000416C    71501C                         	ANDB  _AL,#50h
0000416F    98001C                         	CMPB  _AL,0
00004172    D711                           	JNE   ??_673_ELSE
;005979                                    {
;005983                                            tm_3 = tm_3_dop_g + tm_3_dop_h;
00004174    B30139021C                     	LDB   _AL,tm_3_dop_g
00004179    77013A021C                     	ADDB  _AL,tm_3_dop_h
0000417E    C70138021C                     	STB   _AL,tm_3
;005984                                    }
00004183    204B                           	SJMP  ??_658_END
                 ??_673_ELSE:
;005986                                    {
;005987                                            if ((tm_data_6 & 0x10) != 0)
00004185    B30145021C                     	LDB   _AL,tm_data_6
0000418A    71101C                         	ANDB  _AL,#10h
0000418D    98001C                         	CMPB  _AL,0
00004190    DF15                           	JE    ??_674_ELSE
;005988                                            {
;005989                                                    tm_3 = tm_3 + 64;
00004192    B30138021C                     	LDB   _AL,tm_3
00004197    75401C                         	ADDB  _AL,#40h
0000419A    C70138021C                     	STB   _AL,tm_3
;005991                                                    hist_tr_h = 2;
0000419F    B1021C                         	LDB   _AL,#02h
000041A2    C70155011C                     	STB   _AL,hist_tr_h
;005992                                            }
                 ??_674_ELSE:
;005994                                            if ((tm_data_6 & 0x40) != 0)
000041A7    B30145021C                     	LDB   _AL,tm_data_6
000041AC    71401C                         	ANDB  _AL,#40h
000041AF    98001C                         	CMPB  _AL,0
000041B2    DF1C                           	JE    ??_658_END
;005995                                            {
;005996                                                    tm_3 = tm_3 + 128;
000041B4    B30138021C                     	LDB   _AL,tm_3
000041B9    75801C                         	ADDB  _AL,#80h
000041BC    C70138021C                     	STB   _AL,tm_3
;005998                                                    hist_tr_h = 3;
000041C1    B1031C                         	LDB   _AL,#03h
000041C4    C70155011C                     	STB   _AL,hist_tr_h
;005999                                            }
;006000                                    }
;006001                            }
;006002                    }
;006003            }
000041C9    2005                           	SJMP  ??_658_END
                 ??_658_ELSE:
;006005            {
;006006                    tm_3_dop_h = 0;
000041CB    C7013A0200                     	STB   00h,tm_3_dop_h
;006007            }
                  ??_658_END:
          ??_format_tm4_main:
;006014            tm_4 = 0;
000041D0    C7013D0200                     	STB   00h,tm_4
;006018            if ((tm_data_7 & 0x3) == 0x3)
000041D5    B30146021C                     	LDB   _AL,tm_data_7
000041DA    121C                           	NOTB  _AL
000041DC    71031C                         	ANDB  _AL,#03h
000041DF    98001C                         	CMPB  _AL,0
000041E2    D70C                           	JNE   ??_676_ELSE
;006019            {
;006020                    tm_4 = tm_4 + 1;
000041E4    B3013D021C                     	LDB   _AL,tm_4
000041E9    171C                           	INCB  _AL
000041EB    C7013D021C                     	STB   _AL,tm_4
;006021            }
                 ??_676_ELSE:
;006023            if ((tm_data_7 & 0xC) == 0xC)
000041F0    B30146021C                     	LDB   _AL,tm_data_7
000041F5    121C                           	NOTB  _AL
000041F7    710C1C                         	ANDB  _AL,#0Ch
000041FA    98001C                         	CMPB  _AL,0
000041FD    D70D                           	JNE   ??_677_ELSE
;006024            {
;006025                    tm_4 = tm_4 + 2;
000041FF    B3013D021C                     	LDB   _AL,tm_4
00004204    75021C                         	ADDB  _AL,#02h
00004207    C7013D021C                     	STB   _AL,tm_4
;006026            }
                 ??_677_ELSE:
;006030            if ((tm_data_8 & 0x3) == 0x3)
0000420C    B30147021C                     	LDB   _AL,tm_data_8
00004211    121C                           	NOTB  _AL
00004213    71031C                         	ANDB  _AL,#03h
00004216    98001C                         	CMPB  _AL,0
00004219    D70D                           	JNE   ??_678_ELSE
;006031            {
;006032                    tm_4 = tm_4 + 4;
0000421B    B3013D021C                     	LDB   _AL,tm_4
00004220    75041C                         	ADDB  _AL,#04h
00004223    C7013D021C                     	STB   _AL,tm_4
;006033            }
                 ??_678_ELSE:
;006035            if ((tm_data_8 & 0xC) == 0xC)
00004228    B30147021C                     	LDB   _AL,tm_data_8
0000422D    121C                           	NOTB  _AL
0000422F    710C1C                         	ANDB  _AL,#0Ch
00004232    98001C                         	CMPB  _AL,0
00004235    D70D                           	JNE   ??_679_ELSE
;006036            {
;006037                    tm_4 = tm_4 + 8;
00004237    B3013D021C                     	LDB   _AL,tm_4
0000423C    75081C                         	ADDB  _AL,#08h
0000423F    C7013D021C                     	STB   _AL,tm_4
;006038            }
                 ??_679_ELSE:
;006043            if ((tm_data_8 & 0x30) == 0x30)
00004244    B30147021C                     	LDB   _AL,tm_data_8
00004249    121C                           	NOTB  _AL
0000424B    71301C                         	ANDB  _AL,#30h
0000424E    98001C                         	CMPB  _AL,0
00004251    D70D                           	JNE   ??_680_ELSE
;006044            {
;006045                    tm_4 = tm_4 + 16;
00004253    B3013D021C                     	LDB   _AL,tm_4
00004258    75101C                         	ADDB  _AL,#10h
0000425B    C7013D021C                     	STB   _AL,tm_4
;006046            }
                 ??_680_ELSE:
;006048            if ((tm_data_8 & 0xC0) == 0xC0)
00004260    B30147021C                     	LDB   _AL,tm_data_8
00004265    121C                           	NOTB  _AL
00004267    71C01C                         	ANDB  _AL,#0C0h
0000426A    98001C                         	CMPB  _AL,0
0000426D    D70D                           	JNE   ??_681_ELSE
;006049            {
;006050                    tm_4 = tm_4 + 32;
0000426F    B3013D021C                     	LDB   _AL,tm_4
00004274    75201C                         	ADDB  _AL,#20h
00004277    C7013D021C                     	STB   _AL,tm_4
;006051            }
                 ??_681_ELSE:
;006055            if ((tm_data_4 & 0x30) == 0x30)
0000427C    B30143021C                     	LDB   _AL,tm_data_4
00004281    121C                           	NOTB  _AL
00004283    71301C                         	ANDB  _AL,#30h
00004286    98001C                         	CMPB  _AL,0
00004289    D70D                           	JNE   ??_682_ELSE
;006056            {
;006057                    tm_4 = tm_4 + 64;
0000428B    B3013D021C                     	LDB   _AL,tm_4
00004290    75401C                         	ADDB  _AL,#40h
00004293    C7013D021C                     	STB   _AL,tm_4
;006058            }
                 ??_682_ELSE:
;006060            if ((tm_data_4 & 0xC0) == 0xC0)
00004298    B30143021C                     	LDB   _AL,tm_data_4
0000429D    121C                           	NOTB  _AL
0000429F    71C01C                         	ANDB  _AL,#0C0h
000042A2    98001C                         	CMPB  _AL,0
000042A5    D70D                           	JNE   ??_683_ELSE
;006061            {
;006062                    tm_4 = tm_4 + 128;
000042A7    B3013D021C                     	LDB   _AL,tm_4
000042AC    75801C                         	ADDB  _AL,#80h
000042AF    C7013D021C                     	STB   _AL,tm_4
;006063            }
                 ??_683_ELSE:
;006068            if (first_vkl == 1)
000042B4    B30104001C                     	LDB   _AL,first_vkl
000042B9    99011C                         	CMPB  _AL,#01h
000042BC    D758                           	JNE   ??_684_ELSE
;006069            {
;006070                    first_vkl = 0;
000042BE    C701040000                     	STB   00h,first_vkl
;006072                    tm_1_p = tm_1;
000042C3    B30132021C                     	LDB   _AL,tm_1
000042C8    C70134021C                     	STB   _AL,tm_1_p
;006073                    tm_2_p = tm_2;
000042CD    B30135021C                     	LDB   _AL,tm_2
000042D2    C70137021C                     	STB   _AL,tm_2_p
;006074                    tm_3_p = tm_3;
000042D7    B30138021C                     	LDB   _AL,tm_3
000042DC    C7013C021C                     	STB   _AL,tm_3_p
;006075                    tm_4_p = tm_4;
000042E1    B3013D021C                     	LDB   _AL,tm_4
000042E6    C7013F021C                     	STB   _AL,tm_4_p
;006077                    tm_1_l = tm_1;
000042EB    B30132021C                     	LDB   _AL,tm_1
000042F0    C70133021C                     	STB   _AL,tm_1_l
;006078                    tm_2_l = tm_2;
000042F5    B30135021C                     	LDB   _AL,tm_2
000042FA    C70136021C                     	STB   _AL,tm_2_l
;006079                    tm_3_l = tm_3;
000042FF    B30138021C                     	LDB   _AL,tm_3
00004304    C7013B021C                     	STB   _AL,tm_3_l
;006080                    tm_4_l = tm_4;
00004309    B3013D021C                     	LDB   _AL,tm_4
0000430E    C7013E021C                     	STB   _AL,tm_4_l
;006082                    goto Main_cycle;
00004313    E7B3CC                         	LJMP  ??_Main_cycle_main
;006083            }
                 ??_684_ELSE:
;006086            if (tm_1_l != tm_1)
00004316    B30133021C                     	LDB   _AL,tm_1_l
0000431B    9B0132021C                     	CMPB  _AL,tm_1
00004320    DF17                           	JE    ??_685_ELSE
;006087            {
;006089                    if (ta_vozd == 0)
00004322    B3012D021C                     	LDB   _AL,ta_vozd
00004327    98001C                         	CMPB  _AL,0
0000432A    D703                           	JNE   ??_686_ELSE
;006090                    {
;006091                            change_tm_1();
0000432C    EFD1BC                         	LCALL change_tm_1
;006092                    }
                 ??_686_ELSE:
;006094                    tm_1_l = tm_1;
0000432F    B30132021C                     	LDB   _AL,tm_1
00004334    C70133021C                     	STB   _AL,tm_1_l
;006095            }
                 ??_685_ELSE:
;006098            if (tm_2_l != tm_2)
00004339    B30136021C                     	LDB   _AL,tm_2_l
0000433E    9B0135021C                     	CMPB  _AL,tm_2
00004343    DF17                           	JE    ??_687_ELSE
;006099            {
;006101                    if (ta_vozd == 0)
00004345    B3012D021C                     	LDB   _AL,ta_vozd
0000434A    98001C                         	CMPB  _AL,0
0000434D    D703                           	JNE   ??_688_ELSE
;006102                    {
;006103                            change_tm_2();
0000434F    EFAEBC                         	LCALL change_tm_2
;006104                    }
                 ??_688_ELSE:
;006106                    tm_2_l = tm_2;
00004352    B30135021C                     	LDB   _AL,tm_2
00004357    C70136021C                     	STB   _AL,tm_2_l
;006107            }
                 ??_687_ELSE:
;006110            if (tm_3_l != tm_3)
0000435C    B3013B021C                     	LDB   _AL,tm_3_l
00004361    9B0138021C                     	CMPB  _AL,tm_3
00004366    DF17                           	JE    ??_689_ELSE
;006111            {
;006113                    if (ta_vozd == 0)
00004368    B3012D021C                     	LDB   _AL,ta_vozd
0000436D    98001C                         	CMPB  _AL,0
00004370    D703                           	JNE   ??_690_ELSE
;006114                    {
;006115                            change_tm_3();
00004372    EF8BBC                         	LCALL change_tm_3
;006116                    }
                 ??_690_ELSE:
;006118                    tm_3_l = tm_3;
00004375    B30138021C                     	LDB   _AL,tm_3
0000437A    C7013B021C                     	STB   _AL,tm_3_l
;006119            }
                 ??_689_ELSE:
;006122            if (tm_4_l != tm_4)
0000437F    B3013E021C                     	LDB   _AL,tm_4_l
00004384    9B013D021C                     	CMPB  _AL,tm_4
00004389    DF17                           	JE    ??_691_ELSE
;006123            {
;006125                    if (ta_vozd == 0)
0000438B    B3012D021C                     	LDB   _AL,ta_vozd
00004390    98001C                         	CMPB  _AL,0
00004393    D703                           	JNE   ??_692_ELSE
;006126                    {
;006127                            change_tm_4();
00004395    EF68BC                         	LCALL change_tm_4
;006128                    }
                 ??_692_ELSE:
;006130                    tm_4_l = tm_4;
00004398    B3013D021C                     	LDB   _AL,tm_4
0000439D    C7013E021C                     	STB   _AL,tm_4_l
;006131            }
                 ??_691_ELSE:
;006138            if (mode_tm != 5)
000043A2    B3010A001C                     	LDB   _AL,mode_tm
000043A7    99051C                         	CMPB  _AL,#05h
000043AA    D702                           	JNE   ??_693_ELSE_BYPASS_43AA
000043AC    2091                           	SJMP  ??_693_ELSE
     ??_693_ELSE_BYPASS_43AA:
;006139            {
;006142                    if ((mode_tm == 2) && (frame_tm == 5))
000043AE    99021C                         	CMPB  _AL,#02h
000043B1    D70A                           	JNE   ??_694_ELSE
000043B3    B30106001C                     	LDB   _AL,frame_tm
000043B8    99051C                         	CMPB  _AL,#05h
;006143                    {
;006144                            goto analiz_frame5;
000043BB    DF37                           	JE    ??_analiz_frame5_main
;006145                    }
                 ??_694_ELSE:
;006147                    {
;006150                            if ((tm_2_p != tm_2) || (tm_3_p != tm_3))
000043BD    B30137021C                     	LDB   _AL,tm_2_p
000043C2    9B0135021C                     	CMPB  _AL,tm_2
000043C7    D70C                           	JNE   ??_696_IF
000043C9    B3013C021C                     	LDB   _AL,tm_3_p
000043CE    9B0138021C                     	CMPB  _AL,tm_3
000043D3    DF1F                           	JE    ??_696_ELSE
                   ??_696_IF:
;006151                            {
;006152                                    tm_2_p = tm_2;
000043D5    B30135021C                     	LDB   _AL,tm_2
000043DA    C70137021C                     	STB   _AL,tm_2_p
;006154                                    tm_3_p = tm_3;
000043DF    B30138021C                     	LDB   _AL,tm_3
000043E4    C7013C021C                     	STB   _AL,tm_3_p
;006158                                    frame_tm = 6;
000043E9    B1061C                         	LDB   _AL,#06h
000043EC    C70106001C                     	STB   _AL,frame_tm
;006160                                    set_mode2();
000043F1    EF43BC                         	LCALL set_mode2
;006161                            }
                 ??_696_ELSE:
;006162                    }
       ??_analiz_frame5_main:
;006168                    if ((mode_tm == 2) && (frame_tm == 6))
000043F4    B3010A001C                     	LDB   _AL,mode_tm
000043F9    99021C                         	CMPB  _AL,#02h
000043FC    D70A                           	JNE   ??_698_ELSE
000043FE    B30106001C                     	LDB   _AL,frame_tm
00004403    99061C                         	CMPB  _AL,#06h
;006169                    {
;006170                            goto analiz_reload;
00004406    DF37                           	JE    ??_analiz_reload_main
;006171                    }
                 ??_698_ELSE:
;006173                    {
;006176                            if ((tm_1_p != tm_1) || (tm_4_p != tm_4))
00004408    B30134021C                     	LDB   _AL,tm_1_p
0000440D    9B0132021C                     	CMPB  _AL,tm_1
00004412    D70C                           	JNE   ??_700_IF
00004414    B3013F021C                     	LDB   _AL,tm_4_p
00004419    9B013D021C                     	CMPB  _AL,tm_4
0000441E    DF1F                           	JE    ??_700_ELSE
                   ??_700_IF:
;006177                            {
;006179                                    tm_1_p = tm_1;
00004420    B30132021C                     	LDB   _AL,tm_1
00004425    C70134021C                     	STB   _AL,tm_1_p
;006181                                    tm_4_p = tm_4;
0000442A    B3013D021C                     	LDB   _AL,tm_4
0000442F    C7013F021C                     	STB   _AL,tm_4_p
;006185                                    frame_tm = 5;
00004434    B1051C                         	LDB   _AL,#05h
00004437    C70106001C                     	STB   _AL,frame_tm
;006187                                    set_mode2();
0000443C    EFF8BB                         	LCALL set_mode2
;006188                            }
                 ??_700_ELSE:
;006189                    }
;006190            }
                 ??_693_ELSE:
       ??_analiz_reload_main:
;006197            if (change_tm == 255)
0000443F    B30117011C                     	LDB   _AL,change_tm
00004444    99FF1C                         	CMPB  _AL,#0FFh
00004447    DF02                           	JE    ??_702_ELSE_BYPASS_4447
00004449    216E                           	SJMP  ??_702_ELSE
     ??_702_ELSE_BYPASS_4447:
;006198            {
;006200                    change_tm = 0;
0000444B    C701170100                     	STB   00h,change_tm
;006205                    if (mode_tm == 1)
00004450    B3010A001C                     	LDB   _AL,mode_tm
00004455    99011C                         	CMPB  _AL,#01h
00004458    D71C                           	JNE   ??_703_ELSE
;006206                    {
;006208                            frame_tm = frame_tm + 1;
0000445A    B30106001C                     	LDB   _AL,frame_tm
0000445F    171C                           	INCB  _AL
00004461    C70106001C                     	STB   _AL,frame_tm
;006212                            if (frame_tm > 6)
00004466    99071C                         	CMPB  _AL,#07h
00004469    D308                           	JNC   ??_704_ELSE
;006213                            {
;006214                                    frame_tm = 1;
0000446B    B1011C                         	LDB   _AL,#01h
0000446E    C70106001C                     	STB   _AL,frame_tm
;006215                            }
                 ??_704_ELSE:
;006217                            set_mode1();
00004473    EF95BB                         	LCALL set_mode1
;006218                    }
                 ??_703_ELSE:
;006222                     if ((mode_tm == 2) && (last_mode_tm == 1))
00004476    B3010A001C                     	LDB   _AL,mode_tm
0000447B    99021C                         	CMPB  _AL,#02h
0000447E    D726                           	JNE   ??_705_ELSE
00004480    B30109001C                     	LDB   _AL,last_mode_tm
00004485    99011C                         	CMPB  _AL,#01h
00004488    D71C                           	JNE   ??_705_ELSE
;006223                     {
;006225                            frame_tm = frame_tm + 1;
0000448A    B30106001C                     	LDB   _AL,frame_tm
0000448F    171C                           	INCB  _AL
00004491    C70106001C                     	STB   _AL,frame_tm
;006227                            if (frame_tm > 6)
00004496    99071C                         	CMPB  _AL,#07h
00004499    D308                           	JNC   ??_707_ELSE
;006228                            {
;006229                                    frame_tm = 1;
0000449B    B1011C                         	LDB   _AL,#01h
0000449E    C70106001C                     	STB   _AL,frame_tm
;006230                            }
                 ??_707_ELSE:
;006232                            set_mode1();
000044A3    EF65BB                         	LCALL set_mode1
;006233                    }
                 ??_705_ELSE:
;006237                    if ((mode_tm == 2) && (last_mode_tm == 4))
000044A6    B3010A001C                     	LDB   _AL,mode_tm
000044AB    99021C                         	CMPB  _AL,#02h
000044AE    D742                           	JNE   ??_708_ELSE
000044B0    B30109001C                     	LDB   _AL,last_mode_tm
000044B5    99041C                         	CMPB  _AL,#04h
000044B8    D738                           	JNE   ??_708_ELSE
;006238                    {
;006240                            frame_tm = frame_tm + 1;
000044BA    B30106001C                     	LDB   _AL,frame_tm
000044BF    171C                           	INCB  _AL
000044C1    C70106001C                     	STB   _AL,frame_tm
;006242                            if (frame_tm > 6)
000044C6    99071C                         	CMPB  _AL,#07h
000044C9    D308                           	JNC   ??_710_ELSE
;006243                            {
;006244                                    frame_tm = 1;
000044CB    B1011C                         	LDB   _AL,#01h
000044CE    C70106001C                     	STB   _AL,frame_tm
;006245                            }
                 ??_710_ELSE:
;006247                            last_mode_tm = 2;
000044D3    B1021C                         	LDB   _AL,#02h
000044D6    C70109001C                     	STB   _AL,last_mode_tm
;006249                            mode_tm = 4;
000044DB    B1041C                         	LDB   _AL,#04h
000044DE    C7010A001C                     	STB   _AL,mode_tm
;006251                            count_timer = 0;
000044E3    C301920000                     	ST    00h,count_timer
;006252                            timer_lim = timer27;
000044E8    A30100001C                     	LD    _AX,timer27
000044ED    C3019E001C                     	ST    _AX,timer_lim
;006253                    }
                 ??_708_ELSE:
;006258                    if (mode_tm == 4)
000044F2    B3010A001C                     	LDB   _AL,mode_tm
000044F7    99041C                         	CMPB  _AL,#04h
000044FA    D772                           	JNE   ??_711_ELSE
;006259                    {
;006261                            count_timer = 0;
000044FC    C301920000                     	ST    00h,count_timer
;006263                            if (count_mode3 < 12)
00004501    B30128011C                     	LDB   _AL,count_mode3
00004506    990C1C                         	CMPB  _AL,#0Ch
00004509    DB07                           	JC    ??_712_ELSE
;006264                            {
;006265                                    count_mode3 = count_mode3 + 1;
0000450B    171C                           	INCB  _AL
0000450D    C70128011C                     	STB   _AL,count_mode3
;006266                            }
                 ??_712_ELSE:
;006270                            if (frame_tm == 7)
00004512    B30106001C                     	LDB   _AL,frame_tm
00004517    99071C                         	CMPB  _AL,#07h
0000451A    D73B                           	JNE   ??_713_ELSE
;006271                            {
;006273                                    frame_tm = save_frame + 1;
0000451C    B3010F001C                     	LDB   _AL,save_frame
00004521    171C                           	INCB  _AL
00004523    C70106001C                     	STB   _AL,frame_tm
;006275                                    if (frame_tm > 6)
00004528    99071C                         	CMPB  _AL,#07h
0000452B    D308                           	JNC   ??_714_ELSE
;006276                                    {
;006277                                            frame_tm = 1;
0000452D    B1011C                         	LDB   _AL,#01h
00004530    C70106001C                     	STB   _AL,frame_tm
;006278                                    }
                 ??_714_ELSE:
;006280                                    if (count_mode3 < 12)
00004535    B30128011C                     	LDB   _AL,count_mode3
0000453A    990C1C                         	CMPB  _AL,#0Ch
0000453D    DB0C                           	JC    ??_715_ELSE
;006281                                    {
;006282                                            timer_lim = timer5;
0000453F    A30102001C                     	LD    _AX,timer5
00004544    C3019E001C                     	ST    _AX,timer_lim
;006283                                    }
00004549    2023                           	SJMP  ??_713_END
                 ??_715_ELSE:
;006285                                    {
;006286                                            timer_lim = timer27;
0000454B    A30100001C                     	LD    _AX,timer27
00004550    C3019E001C                     	ST    _AX,timer_lim
;006287                                    }
;006288                            }
00004555    2017                           	SJMP  ??_713_END
                 ??_713_ELSE:
;006290                            {
;006293                                    save_frame = frame_tm;
00004557    C7010F001C                     	STB   _AL,save_frame
;006294                                    frame_tm = 7;
0000455C    B1071C                         	LDB   _AL,#07h
0000455F    C70106001C                     	STB   _AL,frame_tm
;006296                                    timer_lim = timer5;
00004564    A30102001C                     	LD    _AX,timer5
00004569    C3019E001C                     	ST    _AX,timer_lim
;006297                            }
                  ??_713_END:
;006298                    }
                 ??_711_ELSE:
;006303                    if (mode_tm == 5)
0000456E    B3010A001C                     	LDB   _AL,mode_tm
00004573    99051C                         	CMPB  _AL,#05h
00004576    D70F                           	JNE   ??_716_ELSE
;006304                    {
;006305                            count_timer = 0;
00004578    C301920000                     	ST    00h,count_timer
;006306                            timer_lim = timer27;
0000457D    A30100001C                     	LD    _AX,timer27
00004582    C3019E001C                     	ST    _AX,timer_lim
;006307                    }
                 ??_716_ELSE:
;006312                    if (mode_tm == 6)
00004587    B3010A001C                     	LDB   _AL,mode_tm
0000458C    99061C                         	CMPB  _AL,#06h
0000458F    D728                           	JNE   ??_717_ELSE
;006313                    {
;006314                            frame_pt = frame_pt + 1;
00004591    B30105001C                     	LDB   _AL,frame_pt
00004596    171C                           	INCB  _AL
00004598    C70105001C                     	STB   _AL,frame_pt
;006316                            if (frame_pt > 15)
0000459D    99101C                         	CMPB  _AL,#10h
000045A0    D308                           	JNC   ??_718_ELSE
;006317                            {
;006318                                    frame_pt = 1;
000045A2    B1011C                         	LDB   _AL,#01h
000045A5    C70105001C                     	STB   _AL,frame_pt
;006320                            }
                 ??_718_ELSE:
;006322                            count_timer = 0;
000045AA    C301920000                     	ST    00h,count_timer
;006323                            timer_lim = timer5;
000045AF    A30102001C                     	LD    _AX,timer5
000045B4    C3019E001C                     	ST    _AX,timer_lim
;006325                    }
                 ??_717_ELSE:
;006326            }
                 ??_702_ELSE:
;006333            if (num_AB == 0)
000045B9    B30115021C                     	LDB   _AL,num_AB
000045BE    98001C                         	CMPB  _AL,0
000045C1    D70E                           	JNE   ??_719_ELSE
;006334            {
;006335                    PMLC_select_device(NOM_PDEV, PDEV_1, &PMLC_TASK);
000045C3    111C                           	CLRB  _AL
000045C5    B1011D                         	LDB   _AH,#01h
000045C8    A100001E                       	LD    _BX,#PMLC_TASK
000045CC    EF31BA                         	LCALL PMLC_select_device
;006336            }
000045CF    200D                           	SJMP  ??_719_END
                 ??_719_ELSE:
;006338            {
;006339                    PMLC_select_device(RSV_PDEV, PDEV_1, &PMLC_TASK);
000045D1    B1801C                         	LDB   _AL,#80h
000045D4    B1011D                         	LDB   _AH,#01h
000045D7    A100001E                       	LD    _BX,#PMLC_TASK
000045DB    EF22BA                         	LCALL PMLC_select_device
;006340            }
                  ??_719_END:
;006350            if (mode_tm < 5)
000045DE    B3010A001C                     	LDB   _AL,mode_tm
000045E3    99051C                         	CMPB  _AL,#05h
000045E6    D302                           	JNC   ??_720_ELSE_BYPASS_45E6
000045E8    228D                           	SJMP  ??_720_ELSE
     ??_720_ELSE_BYPASS_45E6:
;006351            {
;006356                    if (frame_tm == 1)
000045EA    B30106001C                     	LDB   _AL,frame_tm
000045EF    99011C                         	CMPB  _AL,#01h
000045F2    D753                           	JNE   ??_721_ELSE
;006357                    {
;006358                            PMLC_cmd_exec(&PMLC_TASK, ADDR_IO_PORT_2, CMD_WRITE, tips_td + 0x18, &(BCV03R_N.IO_PORT_2));
000045F4    B301310220                     	LDB   _CL,tips_td
000045F9    751820                         	ADDB  _CL,#18h
000045FC    A100001C                       	LD    _AX,#PMLC_TASK
00004600    B1201E                         	LDB   _BL,#20h
00004603    B1041F                         	LDB   _BH,#04h
00004606    A17A0022                       	LD    _DX,#(BCV03R_N+2)
0000460A    EFF3B9                         	LCALL PMLC_cmd_exec
;006360                            PMLC_cmd_exec(&PMLC_TASK, ADDR_IO_PORT_4, CMD_WRITE, ~dig_td[1][td1 - 1], &(BCV03R_N.IO_PORT_4));
0000460D    AF0110001C                     	LDBZE _AX,td1
00004612    B31D3A0120                     	LDB   _CL,(dig_td+12)[_AX]
00004617    1220                           	NOTB  _CL
00004619    A100001C                       	LD    _AX,#PMLC_TASK
0000461D    B1401E                         	LDB   _BL,#40h
00004620    B1041F                         	LDB   _BH,#04h
00004623    A17C0022                       	LD    _DX,#(BCV03R_N+4)
00004627    EFD6B9                         	LCALL PMLC_cmd_exec
;006361                            PMLC_cmd_exec(&PMLC_TASK, ADDR_IO_PORT_3, CMD_WRITE, ~dig_td[0][td1 - 1], &(BCV03R_N.IO_PORT_3));
0000462A    AF0110001C                     	LDBZE _AX,td1
0000462F    B31D2D0120                     	LDB   _CL,dig_td-0001h[_AX]
00004634    1220                           	NOTB  _CL
00004636    A100001C                       	LD    _AX,#PMLC_TASK
0000463A    B1301E                         	LDB   _BL,#30h
0000463D    B1041F                         	LDB   _BH,#04h
00004640    A17B0022                       	LD    _DX,#(BCV03R_N+3)
00004644    EFB9B9                         	LCALL PMLC_cmd_exec
;006362                    }
                 ??_721_ELSE:
;006366                    if (frame_tm == 2)
00004647    B30106001C                     	LDB   _AL,frame_tm
0000464C    99021C                         	CMPB  _AL,#02h
0000464F    D753                           	JNE   ??_722_ELSE
;006367                    {
;006368                            PMLC_cmd_exec(&PMLC_TASK, ADDR_IO_PORT_2, CMD_WRITE, tips_td + 0x18, &(BCV03R_N.IO_PORT_2));
00004651    B301310220                     	LDB   _CL,tips_td
00004656    751820                         	ADDB  _CL,#18h
00004659    A100001C                       	LD    _AX,#PMLC_TASK
0000465D    B1201E                         	LDB   _BL,#20h
00004660    B1041F                         	LDB   _BH,#04h
00004663    A17A0022                       	LD    _DX,#(BCV03R_N+2)
00004667    EF96B9                         	LCALL PMLC_cmd_exec
;006370                            PMLC_cmd_exec(&PMLC_TASK, ADDR_IO_PORT_4, CMD_WRITE, ~dig_td[1][3 + td2 - 1], &(BCV03R_N.IO_PORT_4));
0000466A    AF0111001C                     	LDBZE _AX,td2
0000466F    B31D3D0120                     	LDB   _CL,(dig_td+15)[_AX]
00004674    1220                           	NOTB  _CL
00004676    A100001C                       	LD    _AX,#PMLC_TASK
0000467A    B1401E                         	LDB   _BL,#40h
0000467D    B1041F                         	LDB   _BH,#04h
00004680    A17C0022                       	LD    _DX,#(BCV03R_N+4)
00004684    EF79B9                         	LCALL PMLC_cmd_exec
;006371                            PMLC_cmd_exec(&PMLC_TASK, ADDR_IO_PORT_3, CMD_WRITE, ~dig_td[0][3 + td2 - 1], &(BCV03R_N.IO_PORT_3));
00004687    AF0111001C                     	LDBZE _AX,td2
0000468C    B31D300120                     	LDB   _CL,(dig_td+2)[_AX]
00004691    1220                           	NOTB  _CL
00004693    A100001C                       	LD    _AX,#PMLC_TASK
00004697    B1301E                         	LDB   _BL,#30h
0000469A    B1041F                         	LDB   _BH,#04h
0000469D    A17B0022                       	LD    _DX,#(BCV03R_N+3)
000046A1    EF5CB9                         	LCALL PMLC_cmd_exec
;006373                    }
                 ??_722_ELSE:
;006377                    if (frame_tm == 3)
000046A4    B30106001C                     	LDB   _AL,frame_tm
000046A9    99031C                         	CMPB  _AL,#03h
000046AC    D753                           	JNE   ??_723_ELSE
;006378                    {
;006379                            PMLC_cmd_exec(&PMLC_TASK, ADDR_IO_PORT_2, CMD_WRITE, tips_td + 0x18, &(BCV03R_N.IO_PORT_2));
000046AE    B301310220                     	LDB   _CL,tips_td
000046B3    751820                         	ADDB  _CL,#18h
000046B6    A100001C                       	LD    _AX,#PMLC_TASK
000046BA    B1201E                         	LDB   _BL,#20h
000046BD    B1041F                         	LDB   _BH,#04h
000046C0    A17A0022                       	LD    _DX,#(BCV03R_N+2)
000046C4    EF39B9                         	LCALL PMLC_cmd_exec
;006381                            PMLC_cmd_exec(&PMLC_TASK, ADDR_IO_PORT_4, CMD_WRITE, ~dig_td[1][6 + td3 - 1], &(BCV03R_N.IO_PORT_4));
000046C7    AF0112001C                     	LDBZE _AX,td3
000046CC    B31D400120                     	LDB   _CL,(dig_td+18)[_AX]
000046D1    1220                           	NOTB  _CL
000046D3    A100001C                       	LD    _AX,#PMLC_TASK
000046D7    B1401E                         	LDB   _BL,#40h
000046DA    B1041F                         	LDB   _BH,#04h
000046DD    A17C0022                       	LD    _DX,#(BCV03R_N+4)
000046E1    EF1CB9                         	LCALL PMLC_cmd_exec
;006382                            PMLC_cmd_exec(&PMLC_TASK, ADDR_IO_PORT_3, CMD_WRITE, ~dig_td[0][6 + td3 - 1], &(BCV03R_N.IO_PORT_3));
000046E4    AF0112001C                     	LDBZE _AX,td3
000046E9    B31D330120                     	LDB   _CL,(dig_td+5)[_AX]
000046EE    1220                           	NOTB  _CL
000046F0    A100001C                       	LD    _AX,#PMLC_TASK
000046F4    B1301E                         	LDB   _BL,#30h
000046F7    B1041F                         	LDB   _BH,#04h
000046FA    A17B0022                       	LD    _DX,#(BCV03R_N+3)
000046FE    EFFFB8                         	LCALL PMLC_cmd_exec
;006383                    }
                 ??_723_ELSE:
;006388                    if (frame_tm == 4)
00004701    B30106001C                     	LDB   _AL,frame_tm
00004706    99041C                         	CMPB  _AL,#04h
00004709    D753                           	JNE   ??_724_ELSE
;006389                    {
;006390                            PMLC_cmd_exec(&PMLC_TASK, ADDR_IO_PORT_2, CMD_WRITE, tips_td + 0x18, &(BCV03R_N.IO_PORT_2));
0000470B    B301310220                     	LDB   _CL,tips_td
00004710    751820                         	ADDB  _CL,#18h
00004713    A100001C                       	LD    _AX,#PMLC_TASK
00004717    B1201E                         	LDB   _BL,#20h
0000471A    B1041F                         	LDB   _BH,#04h
0000471D    A17A0022                       	LD    _DX,#(BCV03R_N+2)
00004721    EFDCB8                         	LCALL PMLC_cmd_exec
;006392                            PMLC_cmd_exec(&PMLC_TASK, ADDR_IO_PORT_4, CMD_WRITE, ~dig_td[1][9 + td4 - 1], &(BCV03R_N.IO_PORT_4));
00004724    AF0113001C                     	LDBZE _AX,td4
00004729    B31D430120                     	LDB   _CL,(dig_td+21)[_AX]
0000472E    1220                           	NOTB  _CL
00004730    A100001C                       	LD    _AX,#PMLC_TASK
00004734    B1401E                         	LDB   _BL,#40h
00004737    B1041F                         	LDB   _BH,#04h
0000473A    A17C0022                       	LD    _DX,#(BCV03R_N+4)
0000473E    EFBFB8                         	LCALL PMLC_cmd_exec
;006393                            PMLC_cmd_exec(&PMLC_TASK, ADDR_IO_PORT_3, CMD_WRITE, ~dig_td[0][9 + td4 - 1], &(BCV03R_N.IO_PORT_3));
00004741    AF0113001C                     	LDBZE _AX,td4
00004746    B31D360120                     	LDB   _CL,(dig_td+8)[_AX]
0000474B    1220                           	NOTB  _CL
0000474D    A100001C                       	LD    _AX,#PMLC_TASK
00004751    B1301E                         	LDB   _BL,#30h
00004754    B1041F                         	LDB   _BH,#04h
00004757    A17B0022                       	LD    _DX,#(BCV03R_N+3)
0000475B    EFA2B8                         	LCALL PMLC_cmd_exec
;006394                    }
                 ??_724_ELSE:
;006398                    if (frame_tm == 5)
0000475E    B30106001C                     	LDB   _AL,frame_tm
00004763    99051C                         	CMPB  _AL,#05h
00004766    D740                           	JNE   ??_725_ELSE
;006399                    {
;006400                            PMLC_cmd_exec(&PMLC_TASK, ADDR_IO_PORT_2, CMD_WRITE, 0x10, &(BCV03R_N.IO_PORT_2));
00004768    A100001C                       	LD    _AX,#PMLC_TASK
0000476C    B1201E                         	LDB   _BL,#20h
0000476F    B1041F                         	LDB   _BH,#04h
00004772    B11020                         	LDB   _CL,#10h
00004775    A17A0022                       	LD    _DX,#(BCV03R_N+2)
00004779    EF84B8                         	LCALL PMLC_cmd_exec
;006402                            PMLC_cmd_exec(&PMLC_TASK, ADDR_IO_PORT_3, CMD_WRITE, tm_4, &(BCV03R_N.IO_PORT_3));
0000477C    A100001C                       	LD    _AX,#PMLC_TASK
00004780    B1301E                         	LDB   _BL,#30h
00004783    B1041F                         	LDB   _BH,#04h
00004786    B3013D0220                     	LDB   _CL,tm_4
0000478B    A17B0022                       	LD    _DX,#(BCV03R_N+3)
0000478F    EF6EB8                         	LCALL PMLC_cmd_exec
;006403                            PMLC_cmd_exec(&PMLC_TASK, ADDR_IO_PORT_4, CMD_WRITE, tm_1, &(BCV03R_N.IO_PORT_4));
00004792    A100001C                       	LD    _AX,#PMLC_TASK
00004796    B1401E                         	LDB   _BL,#40h
00004799    B1041F                         	LDB   _BH,#04h
0000479C    B301320220                     	LDB   _CL,tm_1
000047A1    A17C0022                       	LD    _DX,#(BCV03R_N+4)
000047A5    EF58B8                         	LCALL PMLC_cmd_exec
;006404                    }
                 ??_725_ELSE:
;006408                    if (frame_tm == 6)
000047A8    B30106001C                     	LDB   _AL,frame_tm
000047AD    99061C                         	CMPB  _AL,#06h
000047B0    D760                           	JNE   ??_726_ELSE
;006409                    {
;006410                            if (alg == 1)
000047B2    B301F0001C                     	LDB   _AL,alg
000047B7    99011C                         	CMPB  _AL,#01h
000047BA    D716                           	JNE   ??_727_ELSE
;006411                            {
;006412                                    PMLC_cmd_exec(&PMLC_TASK, ADDR_IO_PORT_2, CMD_WRITE, 0xA, &(BCV03R_N.IO_PORT_2));
000047BC    A100001C                       	LD    _AX,#PMLC_TASK
000047C0    B1201E                         	LDB   _BL,#20h
000047C3    B1041F                         	LDB   _BH,#04h
000047C6    B10A20                         	LDB   _CL,#0Ah
000047C9    A17A0022                       	LD    _DX,#(BCV03R_N+2)
000047CD    EF30B8                         	LCALL PMLC_cmd_exec
;006413                            }
000047D0    2014                           	SJMP  ??_727_END
                 ??_727_ELSE:
;006415                            {
;006416                                    PMLC_cmd_exec(&PMLC_TASK, ADDR_IO_PORT_2, CMD_WRITE, 0x8, &(BCV03R_N.IO_PORT_2));
000047D2    A100001C                       	LD    _AX,#PMLC_TASK
000047D6    B1201E                         	LDB   _BL,#20h
000047D9    B1041F                         	LDB   _BH,#04h
000047DC    B10820                         	LDB   _CL,#08h
000047DF    A17A0022                       	LD    _DX,#(BCV03R_N+2)
000047E3    EF1AB8                         	LCALL PMLC_cmd_exec
;006417                            }
                  ??_727_END:
;006419                            PMLC_cmd_exec(&PMLC_TASK, ADDR_IO_PORT_3, CMD_WRITE, tm_2, &(BCV03R_N.IO_PORT_3));
000047E6    A100001C                       	LD    _AX,#PMLC_TASK
000047EA    B1301E                         	LDB   _BL,#30h
000047ED    B1041F                         	LDB   _BH,#04h
000047F0    B301350220                     	LDB   _CL,tm_2
000047F5    A17B0022                       	LD    _DX,#(BCV03R_N+3)
000047F9    EF04B8                         	LCALL PMLC_cmd_exec
;006420                            PMLC_cmd_exec(&PMLC_TASK, ADDR_IO_PORT_4, CMD_WRITE, tm_3, &(BCV03R_N.IO_PORT_4));
000047FC    A100001C                       	LD    _AX,#PMLC_TASK
00004800    B1401E                         	LDB   _BL,#40h
00004803    B1041F                         	LDB   _BH,#04h
00004806    B301380220                     	LDB   _CL,tm_3
0000480B    A17C0022                       	LD    _DX,#(BCV03R_N+4)
0000480F    EFEEB7                         	LCALL PMLC_cmd_exec
;006421                    }
                 ??_726_ELSE:
;006425                    if (frame_tm == 7)
00004812    B30106001C                     	LDB   _AL,frame_tm
00004817    99071C                         	CMPB  _AL,#07h
0000481A    D75B                           	JNE   ??_728_ELSE
;006426                    {
;006427                            PMLC_cmd_exec(&PMLC_TASK, ADDR_IO_PORT_2, CMD_WRITE, 0, &(BCV03R_N.IO_PORT_2));
0000481C    A100001C                       	LD    _AX,#PMLC_TASK
00004820    B1201E                         	LDB   _BL,#20h
00004823    B1041F                         	LDB   _BH,#04h
00004826    1120                           	CLRB  _CL
00004828    A17A0022                       	LD    _DX,#(BCV03R_N+2)
0000482C    EFD1B7                         	LCALL PMLC_cmd_exec
;006429                            PMLC_cmd_exec(&PMLC_TASK, ADDR_IO_PORT_3, CMD_WRITE, ((mas_tm_otkaz[(count_otk_g & 0x7)] << 3) + mas_tm_otkaz[(count_otk_h & 0x7)]), &(BCV03R_N.IO_PORT_3));
0000482F    B3012A011C                     	LDB   _AL,count_otk_g
00004834    71071C                         	ANDB  _AL,#07h
00004837    111D                           	CLRB  _AH
00004839    B31D2D0320                     	LDB   _CL,mas_tm_otkaz[_AX]
0000483E    190320                         	SHLB  _CL,#03h
00004841    B3012B011C                     	LDB   _AL,count_otk_h
00004846    71071C                         	ANDB  _AL,#07h
00004849    771D2D0320                     	ADDB  _CL,mas_tm_otkaz[_AX]
0000484E    A100001C                       	LD    _AX,#PMLC_TASK
00004852    B1301E                         	LDB   _BL,#30h
00004855    B1041F                         	LDB   _BH,#04h
00004858    A17B0022                       	LD    _DX,#(BCV03R_N+3)
0000485C    EFA1B7                         	LCALL PMLC_cmd_exec
;006430                            PMLC_cmd_exec(&PMLC_TASK, ADDR_IO_PORT_4, CMD_WRITE, ~code_av, &(BCV03R_N.IO_PORT_4));
0000485F    B301250120                     	LDB   _CL,code_av
00004864    1220                           	NOTB  _CL
00004866    A100001C                       	LD    _AX,#PMLC_TASK
0000486A    B1401E                         	LDB   _BL,#40h
0000486D    B1041F                         	LDB   _BH,#04h
00004870    A17C0022                       	LD    _DX,#(BCV03R_N+4)
00004874    EF89B7                         	LCALL PMLC_cmd_exec
;006431                    }
                 ??_728_ELSE:
;006432            }
                 ??_720_ELSE:
;006435            if (mode_tm == 5)
00004877    B3010A001C                     	LDB   _AL,mode_tm
0000487C    99051C                         	CMPB  _AL,#05h
0000487F    D75B                           	JNE   ??_729_ELSE
;006436            {
;006437                            PMLC_cmd_exec(&PMLC_TASK, ADDR_IO_PORT_2, CMD_WRITE, 0, &(BCV03R_N.IO_PORT_2));
00004881    A100001C                       	LD    _AX,#PMLC_TASK
00004885    B1201E                         	LDB   _BL,#20h
00004888    B1041F                         	LDB   _BH,#04h
0000488B    1120                           	CLRB  _CL
0000488D    A17A0022                       	LD    _DX,#(BCV03R_N+2)
00004891    EF6CB7                         	LCALL PMLC_cmd_exec
;006439                            PMLC_cmd_exec(&PMLC_TASK, ADDR_IO_PORT_3, CMD_WRITE, ((mas_tm_otkaz[(count_otk_g & 0x7)] << 3) + mas_tm_otkaz[(count_otk_h & 0x7)]), &(BCV03R_N.IO_PORT_3));
00004894    B3012A011C                     	LDB   _AL,count_otk_g
00004899    71071C                         	ANDB  _AL,#07h
0000489C    111D                           	CLRB  _AH
0000489E    B31D2D0320                     	LDB   _CL,mas_tm_otkaz[_AX]
000048A3    190320                         	SHLB  _CL,#03h
000048A6    B3012B011C                     	LDB   _AL,count_otk_h
000048AB    71071C                         	ANDB  _AL,#07h
000048AE    771D2D0320                     	ADDB  _CL,mas_tm_otkaz[_AX]
000048B3    A100001C                       	LD    _AX,#PMLC_TASK
000048B7    B1301E                         	LDB   _BL,#30h
000048BA    B1041F                         	LDB   _BH,#04h
000048BD    A17B0022                       	LD    _DX,#(BCV03R_N+3)
000048C1    EF3CB7                         	LCALL PMLC_cmd_exec
;006440                            PMLC_cmd_exec(&PMLC_TASK, ADDR_IO_PORT_4, CMD_WRITE, ~code_av, &(BCV03R_N.IO_PORT_4));
000048C4    B301250120                     	LDB   _CL,code_av
000048C9    1220                           	NOTB  _CL
000048CB    A100001C                       	LD    _AX,#PMLC_TASK
000048CF    B1401E                         	LDB   _BL,#40h
000048D2    B1041F                         	LDB   _BH,#04h
000048D5    A17C0022                       	LD    _DX,#(BCV03R_N+4)
000048D9    EF24B7                         	LCALL PMLC_cmd_exec
;006441            }
                 ??_729_ELSE:
;006444            if (mode_tm == 6)
000048DC    B3010A001C                     	LDB   _AL,mode_tm
000048E1    99061C                         	CMPB  _AL,#06h
000048E4    DF02                           	JE    ??_730_ELSE_BYPASS_48E4
000048E6    217B                           	SJMP  ??_730_ELSE
     ??_730_ELSE_BYPASS_48E4:
;006445            {
;006449                    if ((frame_pt >= 1) & (frame_pt <=12 ))
000048E8    B30105001C                     	LDB   _AL,frame_pt
000048ED    98001C                         	CMPB  _AL,0
000048F0    DF58                           	JE    ??_731_ELSE
000048F2    990D1C                         	CMPB  _AL,#0Dh
000048F5    DB53                           	JC    ??_731_ELSE
;006450                    {
;006451                            PMLC_cmd_exec(&PMLC_TASK, ADDR_IO_PORT_2, CMD_WRITE, tips_td + 0x18, &(BCV03R_N.IO_PORT_2));
000048F7    B301310220                     	LDB   _CL,tips_td
000048FC    751820                         	ADDB  _CL,#18h
000048FF    A100001C                       	LD    _AX,#PMLC_TASK
00004903    B1201E                         	LDB   _BL,#20h
00004906    B1041F                         	LDB   _BH,#04h
00004909    A17A0022                       	LD    _DX,#(BCV03R_N+2)
0000490D    EFF0B6                         	LCALL PMLC_cmd_exec
;006453                            PMLC_cmd_exec(&PMLC_TASK, ADDR_IO_PORT_4, CMD_WRITE, ~dig_td[1][frame_pt - 1], &(BCV03R_N.IO_PORT_4));
00004910    AF0105001C                     	LDBZE _AX,frame_pt
00004915    B31D3A0120                     	LDB   _CL,(dig_td+12)[_AX]
0000491A    1220                           	NOTB  _CL
0000491C    A100001C                       	LD    _AX,#PMLC_TASK
00004920    B1401E                         	LDB   _BL,#40h
00004923    B1041F                         	LDB   _BH,#04h
00004926    A17C0022                       	LD    _DX,#(BCV03R_N+4)
0000492A    EFD3B6                         	LCALL PMLC_cmd_exec
;006454                            PMLC_cmd_exec(&PMLC_TASK, ADDR_IO_PORT_3, CMD_WRITE, ~dig_td[0][frame_pt - 1], &(BCV03R_N.IO_PORT_3));
0000492D    AF0105001C                     	LDBZE _AX,frame_pt
00004932    B31D2D0120                     	LDB   _CL,dig_td-0001h[_AX]
00004937    1220                           	NOTB  _CL
00004939    A100001C                       	LD    _AX,#PMLC_TASK
0000493D    B1301E                         	LDB   _BL,#30h
00004940    B1041F                         	LDB   _BH,#04h
00004943    A17B0022                       	LD    _DX,#(BCV03R_N+3)
00004947    EFB6B6                         	LCALL PMLC_cmd_exec
;006456                    }
                 ??_731_ELSE:
;006458                    if (frame_pt == 13)
0000494A    B30105001C                     	LDB   _AL,frame_pt
0000494F    990D1C                         	CMPB  _AL,#0Dh
00004952    D740                           	JNE   ??_733_ELSE
;006459                    {
;006460                            PMLC_cmd_exec(&PMLC_TASK, ADDR_IO_PORT_2, CMD_WRITE, 0x10, &(BCV03R_N.IO_PORT_2));
00004954    A100001C                       	LD    _AX,#PMLC_TASK
00004958    B1201E                         	LDB   _BL,#20h
0000495B    B1041F                         	LDB   _BH,#04h
0000495E    B11020                         	LDB   _CL,#10h
00004961    A17A0022                       	LD    _DX,#(BCV03R_N+2)
00004965    EF98B6                         	LCALL PMLC_cmd_exec
;006462                            PMLC_cmd_exec(&PMLC_TASK, ADDR_IO_PORT_3, CMD_WRITE, tm_4, &(BCV03R_N.IO_PORT_3));
00004968    A100001C                       	LD    _AX,#PMLC_TASK
0000496C    B1301E                         	LDB   _BL,#30h
0000496F    B1041F                         	LDB   _BH,#04h
00004972    B3013D0220                     	LDB   _CL,tm_4
00004977    A17B0022                       	LD    _DX,#(BCV03R_N+3)
0000497B    EF82B6                         	LCALL PMLC_cmd_exec
;006463                            PMLC_cmd_exec(&PMLC_TASK, ADDR_IO_PORT_4, CMD_WRITE, tm_1, &(BCV03R_N.IO_PORT_4));
0000497E    A100001C                       	LD    _AX,#PMLC_TASK
00004982    B1401E                         	LDB   _BL,#40h
00004985    B1041F                         	LDB   _BH,#04h
00004988    B301320220                     	LDB   _CL,tm_1
0000498D    A17C0022                       	LD    _DX,#(BCV03R_N+4)
00004991    EF6CB6                         	LCALL PMLC_cmd_exec
;006464                    }
                 ??_733_ELSE:
;006466                    if (frame_pt == 14)
00004994    B30105001C                     	LDB   _AL,frame_pt
00004999    990E1C                         	CMPB  _AL,#0Eh
0000499C    D760                           	JNE   ??_734_ELSE
;006467                    {
;006469                            if (alg == 1)
0000499E    B301F0001C                     	LDB   _AL,alg
000049A3    99011C                         	CMPB  _AL,#01h
000049A6    D716                           	JNE   ??_735_ELSE
;006470                            {
;006471                                    PMLC_cmd_exec(&PMLC_TASK, ADDR_IO_PORT_2, CMD_WRITE, 0xA, &(BCV03R_N.IO_PORT_2));
000049A8    A100001C                       	LD    _AX,#PMLC_TASK
000049AC    B1201E                         	LDB   _BL,#20h
000049AF    B1041F                         	LDB   _BH,#04h
000049B2    B10A20                         	LDB   _CL,#0Ah
000049B5    A17A0022                       	LD    _DX,#(BCV03R_N+2)
000049B9    EF44B6                         	LCALL PMLC_cmd_exec
;006472                            }
000049BC    2014                           	SJMP  ??_735_END
                 ??_735_ELSE:
;006474                            {
;006475                                    PMLC_cmd_exec(&PMLC_TASK, ADDR_IO_PORT_2, CMD_WRITE, 0x8, &(BCV03R_N.IO_PORT_2));
000049BE    A100001C                       	LD    _AX,#PMLC_TASK
000049C2    B1201E                         	LDB   _BL,#20h
000049C5    B1041F                         	LDB   _BH,#04h
000049C8    B10820                         	LDB   _CL,#08h
000049CB    A17A0022                       	LD    _DX,#(BCV03R_N+2)
000049CF    EF2EB6                         	LCALL PMLC_cmd_exec
;006476                            }
                  ??_735_END:
;006478                            PMLC_cmd_exec(&PMLC_TASK, ADDR_IO_PORT_3, CMD_WRITE, tm_2, &(BCV03R_N.IO_PORT_3));
000049D2    A100001C                       	LD    _AX,#PMLC_TASK
000049D6    B1301E                         	LDB   _BL,#30h
000049D9    B1041F                         	LDB   _BH,#04h
000049DC    B301350220                     	LDB   _CL,tm_2
000049E1    A17B0022                       	LD    _DX,#(BCV03R_N+3)
000049E5    EF18B6                         	LCALL PMLC_cmd_exec
;006479                            PMLC_cmd_exec(&PMLC_TASK, ADDR_IO_PORT_4, CMD_WRITE, tm_3, &(BCV03R_N.IO_PORT_4));
000049E8    A100001C                       	LD    _AX,#PMLC_TASK
000049EC    B1401E                         	LDB   _BL,#40h
000049EF    B1041F                         	LDB   _BH,#04h
000049F2    B301380220                     	LDB   _CL,tm_3
000049F7    A17C0022                       	LD    _DX,#(BCV03R_N+4)
000049FB    EF02B6                         	LCALL PMLC_cmd_exec
;006480                    }
                 ??_734_ELSE:
;006482                    if (frame_pt == 15)
000049FE    B30105001C                     	LDB   _AL,frame_pt
00004A03    990F1C                         	CMPB  _AL,#0Fh
00004A06    D75B                           	JNE   ??_736_ELSE
;006483                    {
;006484                            PMLC_cmd_exec(&PMLC_TASK, ADDR_IO_PORT_2, CMD_WRITE, 0, &(BCV03R_N.IO_PORT_2));
00004A08    A100001C                       	LD    _AX,#PMLC_TASK
00004A0C    B1201E                         	LDB   _BL,#20h
00004A0F    B1041F                         	LDB   _BH,#04h
00004A12    1120                           	CLRB  _CL
00004A14    A17A0022                       	LD    _DX,#(BCV03R_N+2)
00004A18    EFE5B5                         	LCALL PMLC_cmd_exec
;006486                            PMLC_cmd_exec(&PMLC_TASK, ADDR_IO_PORT_3, CMD_WRITE, ((mas_tm_otkaz[(count_otk_g & 0x7)] << 3) + mas_tm_otkaz[(count_otk_h & 0x7)]), &(BCV03R_N.IO_PORT_3));
00004A1B    B3012A011C                     	LDB   _AL,count_otk_g
00004A20    71071C                         	ANDB  _AL,#07h
00004A23    111D                           	CLRB  _AH
00004A25    B31D2D0320                     	LDB   _CL,mas_tm_otkaz[_AX]
00004A2A    190320                         	SHLB  _CL,#03h
00004A2D    B3012B011C                     	LDB   _AL,count_otk_h
00004A32    71071C                         	ANDB  _AL,#07h
00004A35    771D2D0320                     	ADDB  _CL,mas_tm_otkaz[_AX]
00004A3A    A100001C                       	LD    _AX,#PMLC_TASK
00004A3E    B1301E                         	LDB   _BL,#30h
00004A41    B1041F                         	LDB   _BH,#04h
00004A44    A17B0022                       	LD    _DX,#(BCV03R_N+3)
00004A48    EFB5B5                         	LCALL PMLC_cmd_exec
;006487                            PMLC_cmd_exec(&PMLC_TASK, ADDR_IO_PORT_4, CMD_WRITE, ~code_av, &(BCV03R_N.IO_PORT_4));
00004A4B    B301250120                     	LDB   _CL,code_av
00004A50    1220                           	NOTB  _CL
00004A52    A100001C                       	LD    _AX,#PMLC_TASK
00004A56    B1401E                         	LDB   _BL,#40h
00004A59    B1041F                         	LDB   _BH,#04h
00004A5C    A17C0022                       	LD    _DX,#(BCV03R_N+4)
00004A60    EF9DB5                         	LCALL PMLC_cmd_exec
;006488                    }
                 ??_736_ELSE:
;006490            }
                 ??_730_ELSE:
;006499            if ((mode_tm == 1) || (mode_tm == 4))
00004A63    B3010A001C                     	LDB   _AL,mode_tm
00004A68    99011C                         	CMPB  _AL,#01h
00004A6B    DF05                           	JE    ??_737_IF
00004A6D    99041C                         	CMPB  _AL,#04h
00004A70    D758                           	JNE   ??_737_ELSE
                   ??_737_IF:
;006500            {
;006502                    if (code_av != code_av_last)
00004A72    B30125011C                     	LDB   _AL,code_av
00004A77    9B0126011C                     	CMPB  _AL,code_av_last
00004A7C    DF4C                           	JE    ??_739_ELSE
;006503                    {
;006504                            code_av_last = code_av;
00004A7E    C70126011C                     	STB   _AL,code_av_last
;006506                            if (code_av != 0)
00004A83    98001C                         	CMPB  _AL,0
00004A86    DF42                           	JE    ??_740_ELSE
;006507                            {
;006508                                    if (mode_tm != 4)
00004A88    B3010A001C                     	LDB   _AL,mode_tm
00004A8D    99041C                         	CMPB  _AL,#04h
00004A90    DF05                           	JE    ??_741_ELSE
;006509                                    {
;006510                                            last_mode_tm = mode_tm;
00004A92    C70109001C                     	STB   _AL,last_mode_tm
;006511                                    }
                 ??_741_ELSE:
;006513                                    mode_tm = 4;
00004A97    B1041C                         	LDB   _AL,#04h
00004A9A    C7010A001C                     	STB   _AL,mode_tm
;006515                                    save_frame = frame_tm;
00004A9F    B30106001C                     	LDB   _AL,frame_tm
00004AA4    C7010F001C                     	STB   _AL,save_frame
;006517                                    frame_tm = 7;
00004AA9    B1071C                         	LDB   _AL,#07h
00004AAC    C70106001C                     	STB   _AL,frame_tm
;006519                                    change_tm = 0;
00004AB1    C701170100                     	STB   00h,change_tm
;006520                                    count_timer = 0;
00004AB6    C301920000                     	ST    00h,count_timer
;006522                                    count_mode3 = 0;
00004ABB    C701280100                     	STB   00h,count_mode3
;006524                                    timer_lim = timer5;
00004AC0    A30102001C                     	LD    _AX,timer5
00004AC5    C3019E001C                     	ST    _AX,timer_lim
;006525                            }
                 ??_740_ELSE:
;006526                    }
                 ??_739_ELSE:
;006527            }
                 ??_737_ELSE:
;006531            PMLC_cmd_exec(&PMLC_TASK, ADDR_IO_PORT_0, CMD_WRITE, tsk_2, &(BCV03R_N.IO_PORT_0));
00004ACA    A100001C                       	LD    _AX,#PMLC_TASK
00004ACE    111E                           	CLRB  _BL
00004AD0    B1041F                         	LDB   _BH,#04h
00004AD3    B3014A0220                     	LDB   _CL,tsk_2
00004AD8    A1780022                       	LD    _DX,#BCV03R_N
00004ADC    EF21B5                         	LCALL PMLC_cmd_exec
;006532            PMLC_cmd_exec(&PMLC_TASK, ADDR_IO_PORT_1, CMD_WRITE, tsk_1, &(BCV03R_N.IO_PORT_1));
00004ADF    A100001C                       	LD    _AX,#PMLC_TASK
00004AE3    B1101E                         	LDB   _BL,#10h
00004AE6    B1041F                         	LDB   _BH,#04h
00004AE9    B301490220                     	LDB   _CL,tsk_1
00004AEE    A1790022                       	LD    _DX,#(BCV03R_N+1)
00004AF2    EF0BB5                         	LCALL PMLC_cmd_exec
     ??_check_25_second_main:
;006540            if (tim_25 == 1)
00004AF5    B3012E021C                     	LDB   _AL,tim_25
00004AFA    99011C                         	CMPB  _AL,#01h
00004AFD    DF02                           	JE    ??_742_ELSE_BYPASS_4AFD
00004AFF    20B3                           	SJMP  ??_742_ELSE
     ??_742_ELSE_BYPASS_4AFD:
;006541            {
;006544                    if ((tm_data_5 == 0) && (tm_data_6 == 0) && (count_tim_25 > 335))
00004B01    B30144021C                     	LDB   _AL,tm_data_5
00004B06    98001C                         	CMPB  _AL,0
00004B09    D76C                           	JNE   ??_743_ELSE
00004B0B    B30145021C                     	LDB   _AL,tm_data_6
00004B10    98001C                         	CMPB  _AL,0
00004B13    D762                           	JNE   ??_743_ELSE
00004B15    A3018C001C                     	LD    _AX,count_tim_25
00004B1A    8950011C                       	CMP   _AX,#0150h
00004B1E    D357                           	JNC   ??_743_ELSE
;006545                    {
;006548                            tim_25 = 0;
00004B20    C7012E0200                     	STB   00h,tim_25
;006549                            finish_25 = 0;
00004B25    C701480100                     	STB   00h,finish_25
;006551                            count_tim_25 = 0;
00004B2A    C3018C0000                     	ST    00h,count_tim_25
;006553                            tm_3 = 0;
00004B2F    C701380200                     	STB   00h,tm_3
;006557                            ta_vozd = 255;
00004B34    B1FF1C                         	LDB   _AL,#0FFh
00004B37    C7012D021C                     	STB   _AL,ta_vozd
;006561                            if (vent_gh == 0)
00004B3C    B3014B021C                     	LDB   _AL,vent_gh
00004B41    98001C                         	CMPB  _AL,0
00004B44    D712                           	JNE   ??_746_ELSE
;006562                            {
;006563                                    ta_g = g_com;
00004B46    B3014D011C                     	LDB   _AL,g_com
00004B4B    C7012A021C                     	STB   _AL,ta_g
;006565                                    kontur_g();
00004B50    EFADB4                         	LCALL kontur_g
;006567                                    GR26_27 = 0;
00004B53    C701EC0000                     	STB   00h,GR26_27
;006568                            }
                 ??_746_ELSE:
;006570                            if (vent_gh == 1)
00004B58    B3014B021C                     	LDB   _AL,vent_gh
00004B5D    99011C                         	CMPB  _AL,#01h
00004B60    D712                           	JNE   ??_747_ELSE
;006571                            {
;006572                                    ta_h = h_com;
00004B62    B30151011C                     	LDB   _AL,h_com
00004B67    C7012B021C                     	STB   _AL,ta_h
;006574                                    kontur_h();
00004B6C    EF91B4                         	LCALL kontur_h
;006576                                    GR20_19 = 0;
00004B6F    C701E80000                     	STB   00h,GR20_19
;006577                            }
                 ??_747_ELSE:
;006579                            goto output_tm;
00004B74    E782EC                         	LJMP  ??_output_tm_main
;006580                    }
                 ??_743_ELSE:
;006582                    {
;006585                            if (finish_25 == 1)
00004B77    B30148011C                     	LDB   _AL,finish_25
00004B7C    99011C                         	CMPB  _AL,#01h
00004B7F    D733                           	JNE   ??_748_ELSE
;006586                            {
;006587                                    tim_25 = 0;
00004B81    C7012E0200                     	STB   00h,tim_25
;006588                                    finish_25 = 0;
00004B86    C701480100                     	STB   00h,finish_25
;006590                                    count_tim_25 = 0;
00004B8B    C3018C0000                     	ST    00h,count_tim_25
;006593                                    if (vent_gh == 2)
00004B90    B3014B021C                     	LDB   _AL,vent_gh
00004B95    99021C                         	CMPB  _AL,#02h
00004B98    D717                           	JNE   ??_749_ELSE
;006594                                    {
;006595                                            if ((tm_data_5 & 0xc0) != 0)
00004B9A    B30144021C                     	LDB   _AL,tm_data_5
00004B9F    71C01C                         	ANDB  _AL,#0C0h
00004BA2    98001C                         	CMPB  _AL,0
00004BA5    DF0D                           	JE    ??_749_END
;006596                                            {
;006597                                                    code_av = 50;
00004BA7    B1321C                         	LDB   _AL,#32h
00004BAA    C70125011C                     	STB   _AL,code_av
;006598                                            }
;006599                                    }
00004BAF    2003                           	SJMP  ??_749_END
                 ??_749_ELSE:
;006601                                    {
;006602                                            analiz_vent_err();
00004BB1    EF4CB4                         	LCALL analiz_vent_err
;006603                                    }
                  ??_749_END:
;006604                            }
                 ??_748_ELSE:
;006605                    }
;006606            }
                 ??_742_ELSE:
??_check_25_second_temp_main:
;006613            if (tim_25_t == 1)
00004BB4    B30130021C                     	LDB   _AL,tim_25_t
00004BB9    99011C                         	CMPB  _AL,#01h
00004BBC    DF02                           	JE    ??_751_ELSE_BYPASS_4BBC
00004BBE    20D2                           	SJMP  ??_751_ELSE
     ??_751_ELSE_BYPASS_4BBC:
;006614            {
;006617                    if ((tm_data_5 == 0) && (tm_data_6 == 0) && (count_tim_25_t > 335))
00004BC0    B30144021C                     	LDB   _AL,tm_data_5
00004BC5    98001C                         	CMPB  _AL,0
00004BC8    DF02                           	JE    ??_752_ELSE_BYPASS_4BC8
00004BCA    20AA                           	SJMP  ??_752_ELSE
     ??_752_ELSE_BYPASS_4BC8:
00004BCC    B30145021C                     	LDB   _AL,tm_data_6
00004BD1    98001C                         	CMPB  _AL,0
00004BD4    DF02                           	JE    ??_752_ELSE_BYPASS_4BD4
00004BD6    209E                           	SJMP  ??_752_ELSE
     ??_752_ELSE_BYPASS_4BD4:
00004BD8    A30190001C                     	LD    _AX,count_tim_25_t
00004BDD    8950011C                       	CMP   _AX,#0150h
00004BE1    DB02                           	JC    ??_752_ELSE_BYPASS_4BE1
00004BE3    2091                           	SJMP  ??_752_ELSE
     ??_752_ELSE_BYPASS_4BE1:
;006618                    {
;006620                            tim_25_t = 0;
00004BE5    C701300200                     	STB   00h,tim_25_t
;006621                            finish_25_t = 0;
00004BEA    C7014A0100                     	STB   00h,finish_25_t
;006623                            count_tim_25_t = 0;
00004BEF    C301900000                     	ST    00h,count_tim_25_t
;006625                            tm_3 = 0;
00004BF4    C701380200                     	STB   00h,tm_3
;006629                            ta_vozd = 255;
00004BF9    B1FF1C                         	LDB   _AL,#0FFh
00004BFC    C7012D021C                     	STB   _AL,ta_vozd
;006633                            if (vent_gh_t == 0)
00004C01    B3014C021C                     	LDB   _AL,vent_gh_t
00004C06    98001C                         	CMPB  _AL,0
00004C09    D735                           	JNE   ??_755_ELSE
;006634                            {
;006635                                    if (g_fix != 0)
00004C0B    B3014E011C                     	LDB   _AL,g_fix
00004C10    98001C                         	CMPB  _AL,0
00004C13    DF07                           	JE    ??_756_ELSE
;006636                                    {
;006637                                            ta_g = g_fix;
00004C15    C7012A021C                     	STB   _AL,ta_g
;006638                                    }
00004C1A    2008                           	SJMP  ??_756_END
                 ??_756_ELSE:
;006640                                    {
;006641                                            ta_g = 0x3;
00004C1C    B1031C                         	LDB   _AL,#03h
00004C1F    C7012A021C                     	STB   _AL,ta_g
;006642                                    }
                  ??_756_END:
;006644                                    if (ish_g == 1)
00004C24    B30107001C                     	LDB   _AL,ish_g
00004C29    99011C                         	CMPB  _AL,#01h
00004C2C    D70D                           	JNE   ??_757_ELSE
;006645                                    {
;006646                                            ta_g = 0x3;
00004C2E    B1031C                         	LDB   _AL,#03h
00004C31    C7012A021C                     	STB   _AL,ta_g
;006648                                            ish_g = 0;
00004C36    C701070000                     	STB   00h,ish_g
;006649                                    }
                 ??_757_ELSE:
;006651                                    kontur_g();
00004C3B    EFC2B3                         	LCALL kontur_g
;006652                            }
00004C3E    2033                           	SJMP  ??_755_END
                 ??_755_ELSE:
;006654                            {
;006655                                    if (h_fix != 0)
00004C40    B30152011C                     	LDB   _AL,h_fix
00004C45    98001C                         	CMPB  _AL,0
00004C48    DF07                           	JE    ??_758_ELSE
;006656                                    {
;006657                                            ta_h = h_fix;
00004C4A    C7012B021C                     	STB   _AL,ta_h
;006658                                    }
00004C4F    2008                           	SJMP  ??_758_END
                 ??_758_ELSE:
;006660                                    {
;006661                                            ta_h = 0x3;
00004C51    B1031C                         	LDB   _AL,#03h
00004C54    C7012B021C                     	STB   _AL,ta_h
;006662                                    }
                  ??_758_END:
;006664                                    if (ish_h == 1)
00004C59    B30108001C                     	LDB   _AL,ish_h
00004C5E    99011C                         	CMPB  _AL,#01h
00004C61    D70D                           	JNE   ??_759_ELSE
;006665                                    {
;006666                                            ta_h = 0x3;
00004C63    B1031C                         	LDB   _AL,#03h
00004C66    C7012B021C                     	STB   _AL,ta_h
;006668                                            ish_h = 0;
00004C6B    C701080000                     	STB   00h,ish_h
;006669                                    }
                 ??_759_ELSE:
;006671                                    kontur_h();
00004C70    EF8DB3                         	LCALL kontur_h
;006672                            }
                  ??_755_END:
;006674                            goto output_tm;
00004C73    E783EB                         	LJMP  ??_output_tm_main
;006675                    }
                 ??_752_ELSE:
;006677                    {
;006680                            if (finish_25_t == 1)
00004C76    B3014A011C                     	LDB   _AL,finish_25_t
00004C7B    99011C                         	CMPB  _AL,#01h
00004C7E    D712                           	JNE   ??_760_ELSE
;006681                            {
;006682                                    tim_25_t = 0;
00004C80    C701300200                     	STB   00h,tim_25_t
;006683                                    finish_25_t = 0;
00004C85    C7014A0100                     	STB   00h,finish_25_t
;006685                                    count_tim_25_t = 0;
00004C8A    C301900000                     	ST    00h,count_tim_25_t
;006687                                    analiz_vent_err();
00004C8F    EF6EB3                         	LCALL analiz_vent_err
;006688                            }
                 ??_760_ELSE:
;006689                    }
;006690            }
                 ??_751_ELSE:
 ??_check_25_second_otk_main:
;006697            if (tim_25_otk == 1)
00004C92    B3012F021C                     	LDB   _AL,tim_25_otk
00004C97    99011C                         	CMPB  _AL,#01h
00004C9A    DF02                           	JE    ??_761_ELSE_BYPASS_4C9A
00004C9C    20BE                           	SJMP  ??_761_ELSE
     ??_761_ELSE_BYPASS_4C9A:
;006698            {
;006701                    if ((tm_data_5 == 0) && (tm_data_6 == 0) && (count_tim_25_otk > 335))
00004C9E    B30144021C                     	LDB   _AL,tm_data_5
00004CA3    98001C                         	CMPB  _AL,0
00004CA6    DF02                           	JE    ??_762_ELSE_BYPASS_4CA6
00004CA8    2082                           	SJMP  ??_762_ELSE
     ??_762_ELSE_BYPASS_4CA6:
00004CAA    B30145021C                     	LDB   _AL,tm_data_6
00004CAF    98001C                         	CMPB  _AL,0
00004CB2    D778                           	JNE   ??_762_ELSE
00004CB4    A3018E001C                     	LD    _AX,count_tim_25_otk
00004CB9    8950011C                       	CMP   _AX,#0150h
00004CBD    D36D                           	JNC   ??_762_ELSE
;006702                    {
;006703                            tim_25_otk = 0;
00004CBF    C7012F0200                     	STB   00h,tim_25_otk
;006704                            finish_25_otk = 0;
00004CC4    C701490100                     	STB   00h,finish_25_otk
;006706                            count_tim_25_otk = 0;
00004CC9    C3018E0000                     	ST    00h,count_tim_25_otk
;006708                            tm_3 = 0;
00004CCE    C701380200                     	STB   00h,tm_3
;006712                            if (g1_go == 1)
00004CD3    B3014B011C                     	LDB   _AL,g1_go
00004CD8    99011C                         	CMPB  _AL,#01h
00004CDB    D70A                           	JNE   ??_765_ELSE
;006713                            {
;006714                                    g1_go = 0;
00004CDD    C7014B0100                     	STB   00h,g1_go
;006716                                    vkl_kont_g2();
00004CE2    EF1BB3                         	LCALL vkl_kont_g2
;006718                                    goto set_vozd_ta;
00004CE5    203A                           	SJMP  ??_set_vozd_ta_main
;006719                            }
                 ??_765_ELSE:
;006721                            if (g2_go == 1)
00004CE7    B3014C011C                     	LDB   _AL,g2_go
00004CEC    99011C                         	CMPB  _AL,#01h
00004CEF    D70A                           	JNE   ??_766_ELSE
;006722                            {
;006723                                    g2_go = 0;
00004CF1    C7014C0100                     	STB   00h,g2_go
;006725                                    vkl_kont_g1();
00004CF6    EF07B3                         	LCALL vkl_kont_g1
;006727                                    goto set_vozd_ta;
00004CF9    2026                           	SJMP  ??_set_vozd_ta_main
;006728                            }
                 ??_766_ELSE:
;006730                            if (h1_go == 1)
00004CFB    B3014F011C                     	LDB   _AL,h1_go
00004D00    99011C                         	CMPB  _AL,#01h
00004D03    D70A                           	JNE   ??_767_ELSE
;006731                            {
;006732                                    h1_go = 0;
00004D05    C7014F0100                     	STB   00h,h1_go
;006734                                    vkl_kont_h2();
00004D0A    EFF3B2                         	LCALL vkl_kont_h2
;006736                                    goto set_vozd_ta;
00004D0D    2012                           	SJMP  ??_set_vozd_ta_main
;006737                            }
                 ??_767_ELSE:
;006739                            if (h2_go == 1)
00004D0F    B30150011C                     	LDB   _AL,h2_go
00004D14    99011C                         	CMPB  _AL,#01h
00004D17    D708                           	JNE   ??_768_ELSE
;006740                            {
;006741                                    h2_go = 0;
00004D19    C701500100                     	STB   00h,h2_go
;006743                                    vkl_kont_h1();
00004D1E    EFDFB2                         	LCALL vkl_kont_h1
;006744                            }
                 ??_768_ELSE:
         ??_set_vozd_ta_main:
;006749                            ta_vozd = 255;
00004D21    B1FF1C                         	LDB   _AL,#0FFh
00004D24    C7012D021C                     	STB   _AL,ta_vozd
;006751                            goto output_tm;
00004D29    E7CDEA                         	LJMP  ??_output_tm_main
;006753                    }
                 ??_762_ELSE:
;006755                    {
;006758                            if (finish_25_otk == 1)
00004D2C    B30149011C                     	LDB   _AL,finish_25_otk
00004D31    99011C                         	CMPB  _AL,#01h
00004D34    D726                           	JNE   ??_769_ELSE
;006759                            {
;006760                                    tim_25_otk = 0;
00004D36    C7012F0200                     	STB   00h,tim_25_otk
;006761                                    finish_25_otk = 0;
00004D3B    C701490100                     	STB   00h,finish_25_otk
;006763                                    count_tim_25_otk = 0;
00004D40    C3018E0000                     	ST    00h,count_tim_25_otk
;006765                                    g1_go = 0;
00004D45    C7014B0100                     	STB   00h,g1_go
;006766                                    g2_go = 0;
00004D4A    C7014C0100                     	STB   00h,g2_go
;006767                                    h1_go = 0;
00004D4F    C7014F0100                     	STB   00h,h1_go
;006768                                    h2_go = 0;
00004D54    C701500100                     	STB   00h,h2_go
;006770                                    analiz_vent_err();
00004D59    EFA4B2                         	LCALL analiz_vent_err
;006771                            }
                 ??_769_ELSE:
;006772                    }
;006773            }
                 ??_761_ELSE:
           ??_check_mko_main:
;006784            if (bsi_int == 1)
00004D5C    B30105011C                     	LDB   _AL,bsi_int
00004D61    99011C                         	CMPB  _AL,#01h
00004D64    DF02                           	JE    ??_770_ELSE_BYPASS_4D64
00004D66    211C                           	SJMP  ??_770_ELSE
     ??_770_ELSE_BYPASS_4D64:
;006785            {
;006786                    bsi_int = 0;
00004D68    C701050100                     	STB   00h,bsi_int
;006791                    if ((bsi_rt_stat & 0x400) == 0)
00004D6D    A30188001C                     	LD    _AX,bsi_rt_stat
00004D72    6100041C                       	AND   _AX,#0400h
00004D76    88001C                         	CMP   _AX,0
00004D79    DF02                           	JE    ??_771_ELSE_BYPASS_4D79
00004D7B    2107                           	SJMP  ??_771_ELSE
     ??_771_ELSE_BYPASS_4D79:
;006792                    {
;006798                            bshv1 = *(volatile unsigned short*)(0x842 + 0x40 * 4);  //  0 -  
00004D7D    B30142091C                     	LDB   _AL,0942h
00004D82    C70100011C                     	STB   _AL,bshv1
;006800                            if (bshv1_prev != bshv1)
00004D87    B30101011C                     	LDB   _AL,bshv1_prev
00004D8C    9B0100011C                     	CMPB  _AL,bshv1
00004D91    DF34                           	JE    ??_772_ELSE
;006801                            {
;006802                                    bshv2 = *(volatile unsigned short*)(0x843 + 0x40 * 4);  //  0 -  
00004D93    B30143091C                     	LDB   _AL,0943h
00004D98    C70102011C                     	STB   _AL,bshv2
;006804                                    bshv3 = *(volatile unsigned short*)(0x844 + 0x40 * 4);  //  1 -  
00004D9D    B30144091C                     	LDB   _AL,0944h
00004DA2    C70103011C                     	STB   _AL,bshv3
;006805                                    bshv4 = *(volatile unsigned short*)(0x845 + 0x40 * 4);  //  1 -  
00004DA7    B30145091C                     	LDB   _AL,0945h
00004DAC    C70104011C                     	STB   _AL,bshv4
;006807                                    bshv1_prev = bshv1;
00004DB1    B30100011C                     	LDB   _AL,bshv1
00004DB6    C70101011C                     	STB   _AL,bshv1_prev
;006809                                    c_msg_bshv ++;
00004DBB    B30114011C                     	LDB   _AL,c_msg_bshv
00004DC0    171C                           	INCB  _AL
00004DC2    C70114011C                     	STB   _AL,c_msg_bshv
;006811                            }
                 ??_772_ELSE:
;006820                            mko_in_l = *(volatile unsigned short*)(0x842);
00004DC7    B30142081C                     	LDB   _AL,0842h
00004DCC    C70110021C                     	STB   _AL,mko_in_l
;006821                            mko_in_h = *(volatile unsigned short*)(0x843);
00004DD1    B30143081C                     	LDB   _AL,0843h
00004DD6    C7010F021C                     	STB   _AL,mko_in_h
;006828                            if ((mko_in_l == 0) && (mko_in_h == 0))
00004DDB    B30110021C                     	LDB   _AL,mko_in_l
00004DE0    98001C                         	CMPB  _AL,0
00004DE3    D70D                           	JNE   ??_773_ELSE
00004DE5    B3010F021C                     	LDB   _AL,mko_in_h
00004DEA    98001C                         	CMPB  _AL,0
00004DED    D703                           	JNE   ??_773_ELSE
;006829                            {
;006831                                    __NOP();
00004DEF    FD                             	NOP   
;006833                            }
00004DF0    2092                           	SJMP  ??_773_END
                 ??_773_ELSE:
;006835                            {
;006837                                    if  (mko_in_h <= 0x3)
00004DF2    B3010F021C                     	LDB   _AL,mko_in_h
00004DF7    99041C                         	CMPB  _AL,#04h
00004DFA    DB77                           	JC    ??_775_ELSE
;006838                                    {
;006844                                            if ((mko_in_l > 167) && (mko_in_h == 3))
00004DFC    B30110021C                     	LDB   _AL,mko_in_l
00004E01    99A81C                         	CMPB  _AL,#0A8h
00004E04    D333                           	JNC   ??_776_ELSE
00004E06    B3010F021C                     	LDB   _AL,mko_in_h
00004E0B    99031C                         	CMPB  _AL,#03h
00004E0E    D729                           	JNE   ??_776_ELSE
;006845                                            {
;006846                                                    prog_com = mko_in_l - 167;
00004E10    B30110021C                     	LDB   _AL,mko_in_l
00004E15    75591C                         	ADDB  _AL,#59h
00004E18    C70121021C                     	STB   _AL,prog_com
;006848                                                    fl_com = 0;
00004E1D    C301960000                     	ST    00h,fl_com
;006852                                                    last_pc = 256 * mko_in_h + mko_in_l;
00004E22    B3010F021C                     	LDB   _AL,mko_in_h
00004E27    09081C                         	SHL   _AX,#08h
00004E2A    AF0110021E                     	LDBZE _BX,mko_in_l
00004E2F    641E1C                         	ADD   _AX,_BX
00004E32    C30198001C                     	ST    _AX,last_pc
;006854                                            }
00004E37    202E                           	SJMP  ??_776_END
                 ??_776_ELSE:
;006856                                            {
;006859                                                    add_mko_buffer();
00004E39    EF58B2                         	LCALL add_mko_buffer
;006861                                                    last_tr_in = 256 * mko_in_h + mko_in_l;
00004E3C    B3010F021C                     	LDB   _AL,mko_in_h
00004E41    09081C                         	SHL   _AX,#08h
00004E44    AF0110021E                     	LDBZE _BX,mko_in_l
00004E49    641E1C                         	ADD   _AX,_BX
00004E4C    C3019A001C                     	ST    _AX,last_tr_in
;006863                                                    count_tr_in ++;
00004E51    B3012C011C                     	LDB   _AL,count_tr_in
00004E56    171C                           	INCB  _AL
00004E58    C7012C011C                     	STB   _AL,count_tr_in
;006865                                                    if (count_tr_in >= 64)
00004E5D    99401C                         	CMPB  _AL,#40h
00004E60    D305                           	JNC   ??_778_ELSE
;006866                                                    {
;006867                                                            count_tr_in = 0;
00004E62    C7012C0100                     	STB   00h,count_tr_in
;006868                                                    }
                 ??_778_ELSE:
;006869                                            }
                  ??_776_END:
;006872                                            c_msg_pc ++;
00004E67    B30115011C                     	LDB   _AL,c_msg_pc
00004E6C    171C                           	INCB  _AL
00004E6E    C70115011C                     	STB   _AL,c_msg_pc
;006873                                    }
                 ??_775_ELSE:
;006877                                    for (io = 0; io <= 2; io++)
00004E73    0124                           	CLR   io?main
00004E75    2007                           	SJMP  ??_779_CHECK
                 ??_779_LOOP:
;006878                                    {
;006879                                            *(volatile unsigned short*)(0x842 + io) = 0;
00004E77    C325420800                     	ST    00h,0842h[io?main]
;006880                                    }
00004E7C    0724                           	INC   io?main
                ??_779_CHECK:
00004E7E    89030024                       	CMP   io?main,#0003h
00004E82    DEF3                           	JLT   ??_779_LOOP
;006881                            }
                  ??_773_END:
;006882                    }
                 ??_771_ELSE:
;006883            }
                 ??_770_ELSE:
           ??_telem_mko_main:
;006890            tmi[0] = 256 * bshv2 + bshv1;
00004E84    B30102011C                     	LDB   _AL,bshv2
00004E89    09081C                         	SHL   _AX,#08h
00004E8C    AF0100011E                     	LDBZE _BX,bshv1
00004E91    641E1C                         	ADD   _AX,_BX
00004E94    C301A0001C                     	ST    _AX,tmi
;006891            tmi[1] = 256 * bshv4 + bshv3;
00004E99    B30104011C                     	LDB   _AL,bshv4
00004E9E    09081C                         	SHL   _AX,#08h
00004EA1    AF0103011E                     	LDBZE _BX,bshv3
00004EA6    641E1C                         	ADD   _AX,_BX
00004EA9    C301A2001C                     	ST    _AX,(tmi+2)
;006895            tmi[2] = 256 * (count_tr_in << 2) + last_tr_in;
00004EAE    AF012C011C                     	LDBZE _AX,count_tr_in
00004EB3    090A1C                         	SHL   _AX,#0Ah
00004EB6    67019A001C                     	ADD   _AX,last_tr_in
00004EBB    C301A4001C                     	ST    _AX,(tmi+4)
;006896            tmi[3] = 256 * (count_tr_out << 2) + last_tr_out;
00004EC0    AF012D011C                     	LDBZE _AX,count_tr_out
00004EC5    090A1C                         	SHL   _AX,#0Ah
00004EC8    67019C001C                     	ADD   _AX,last_tr_out
00004ECD    C301A6001C                     	ST    _AX,(tmi+6)
;006901            tmi[4] = last_pc + fl_com;
00004ED2    A30198001C                     	LD    _AX,last_pc
00004ED7    670196001C                     	ADD   _AX,fl_com
00004EDC    C301A8001C                     	ST    _AX,(tmi+8)
;006905            tmi[5] = c_msg_bshv;
00004EE1    AF0114011C                     	LDBZE _AX,c_msg_bshv
00004EE6    C301AA001C                     	ST    _AX,(tmi+10)
;006906            tmi[6] = c_msg_pc;
00004EEB    AF0115011C                     	LDBZE _AX,c_msg_pc
00004EF0    C301AC001C                     	ST    _AX,(tmi+12)
;006911            tmi[7] = ((num_AB & 0x1) * 128 + 32 * ruch_mode + 64 * alg) * 256;
00004EF5    B30115021C                     	LDB   _AL,num_AB
00004EFA    71011C                         	ANDB  _AL,#01h
00004EFD    09071C                         	SHL   _AX,#07h
00004F00    AF01F0001E                     	LDBZE _BX,alg
00004F05    09061E                         	SHL   _BX,#06h
00004F08    641E1C                         	ADD   _AX,_BX
00004F0B    AF0123021E                     	LDBZE _BX,ruch_mode
00004F10    09051E                         	SHL   _BX,#05h
00004F13    641E1C                         	ADD   _AX,_BX
00004F16    09081C                         	SHL   _AX,#08h
00004F19    C301AE001C                     	ST    _AX,(tmi+14)
;006913            if (avt_mode2 == 0)
00004F1E    B301F2001C                     	LDB   _AL,avt_mode2
00004F23    98001C                         	CMPB  _AL,0
00004F26    D710                           	JNE   ??_780_ELSE
;006914            {
;006915                    tmi[7] = tmi[7] + 256 * 16;
00004F28    A301AE001C                     	LD    _AX,(tmi+14)
00004F2D    6500101C                       	ADD   _AX,#1000h
00004F31    C301AE001C                     	ST    _AX,(tmi+14)
;006916            }
00004F36    200E                           	SJMP  ??_780_END
                 ??_780_ELSE:
;006918            {
;006919                    tmi[7] = tmi[7] + 256 * 2;
00004F38    A301AE001C                     	LD    _AX,(tmi+14)
00004F3D    6500021C                       	ADD   _AX,#0200h
00004F41    C301AE001C                     	ST    _AX,(tmi+14)
;006920            }
                  ??_780_END:
;006923            if (ruch_mode == 1)
00004F46    B30123021C                     	LDB   _AL,ruch_mode
00004F4B    99011C                         	CMPB  _AL,#01h
00004F4E    D710                           	JNE   ??_781_ELSE
;006924            {
;006925                    tmi[7] = tmi[7] + 256 * 4;
00004F50    A301AE001C                     	LD    _AX,(tmi+14)
00004F55    6500041C                       	ADD   _AX,#0400h
00004F59    C301AE001C                     	ST    _AX,(tmi+14)
;006927            }
00004F5E    2048                           	SJMP  ??_781_END
                 ??_781_ELSE:
;006929            {
;006930                    if (avt_mode1 == 3)
00004F60    B301F1001C                     	LDB   _AL,avt_mode1
00004F65    99031C                         	CMPB  _AL,#03h
00004F68    D70E                           	JNE   ??_782_ELSE
;006931                    {
;006932                            tmi[7] = tmi[7] + 256 * 1;
00004F6A    A301AE001C                     	LD    _AX,(tmi+14)
00004F6F    6500011C                       	ADD   _AX,#0100h
00004F73    C301AE001C                     	ST    _AX,(tmi+14)
;006933                    }
                 ??_782_ELSE:
;006935                    if (avt_mode1 == 1)
00004F78    B301F1001C                     	LDB   _AL,avt_mode1
00004F7D    99011C                         	CMPB  _AL,#01h
00004F80    D70E                           	JNE   ??_783_ELSE
;006936                    {
;006937                            tmi[7] = tmi[7] + 256 * 8;
00004F82    A301AE001C                     	LD    _AX,(tmi+14)
00004F87    6500081C                       	ADD   _AX,#0800h
00004F8B    C301AE001C                     	ST    _AX,(tmi+14)
;006938                    }
                 ??_783_ELSE:
;006940                    if (avt_mode1 == 0)
00004F90    B301F1001C                     	LDB   _AL,avt_mode1
00004F95    98001C                         	CMPB  _AL,0
00004F98    D70E                           	JNE   ??_784_ELSE
;006941                    {
;006942                            tmi[7] = tmi[7] + 256 * 4;
00004F9A    A301AE001C                     	LD    _AX,(tmi+14)
00004F9F    6500041C                       	ADD   _AX,#0400h
00004FA3    C301AE001C                     	ST    _AX,(tmi+14)
;006943                    }
                 ??_784_ELSE:
;006944            }
                  ??_781_END:
;006946            tmi[7] = tmi[7] + (mode_td * 128) + (count_otk_h <<3) + count_otk_g;
00004FA8    AF0113021C                     	LDBZE _AX,mode_td
00004FAD    09071C                         	SHL   _AX,#07h
00004FB0    6701AE001C                     	ADD   _AX,(tmi+14)
00004FB5    AF012B011E                     	LDBZE _BX,count_otk_h
00004FBA    09031E                         	SHL   _BX,#03h
00004FBD    641E1C                         	ADD   _AX,_BX
00004FC0    AF012A011E                     	LDBZE _BX,count_otk_g
00004FC5    641E1C                         	ADD   _AX,_BX
00004FC8    C301AE001C                     	ST    _AX,(tmi+14)
;006951            tmi[8] = tm_1 + tm_2 * 256;
00004FCD    B30135021C                     	LDB   _AL,tm_2
00004FD2    09081C                         	SHL   _AX,#08h
00004FD5    AF0132021E                     	LDBZE _BX,tm_1
00004FDA    641E1C                         	ADD   _AX,_BX
00004FDD    C301B0001C                     	ST    _AX,(tmi+16)
;006955            tmi[9] = tm_3 + ((tm_4 & 0xC3) + ((tm_4 & 0x0C) << 2) + ((tm_4 & 0x30) >> 2)) * 256;
00004FE2    B3013D021C                     	LDB   _AL,tm_4
00004FE7    710C1C                         	ANDB  _AL,#0Ch
00004FEA    111D                           	CLRB  _AH
00004FEC    09021C                         	SHL   _AX,#02h
00004FEF    B3013D021E                     	LDB   _BL,tm_4
00004FF4    71C31E                         	ANDB  _BL,#0C3h
00004FF7    641E1C                         	ADD   _AX,_BX
00004FFA    B3013D021E                     	LDB   _BL,tm_4
00004FFF    71301E                         	ANDB  _BL,#30h
00005002    0A021E                         	SHRA  _BX,#02h
00005005    641E1C                         	ADD   _AX,_BX
00005008    09081C                         	SHL   _AX,#08h
0000500B    AF0138021E                     	LDBZE _BX,tm_3
00005010    641E1C                         	ADD   _AX,_BX
00005013    C301B2001C                     	ST    _AX,(tmi+18)
;006960            if (td1 != 3)
00005018    B30110001C                     	LDB   _AL,td1
0000501D    99031C                         	CMPB  _AL,#03h
00005020    DF0A                           	JE    ??_785_ELSE
;006961            {
;006962                    tmi[10] = td1 * 256;
00005022    09081C                         	SHL   _AX,#08h
00005025    C301B4001C                     	ST    _AX,(tmi+20)
;006963            }
0000502A    2009                           	SJMP  ??_785_END
                 ??_785_ELSE:
;006965            {
;006966                    tmi[10] = 4 * 256;
0000502C    A100041C                       	LD    _AX,#0400h
00005030    C301B4001C                     	ST    _AX,(tmi+20)
;006967            }
                  ??_785_END:
;006970            if (td2 == 1)
00005035    B30111001C                     	LDB   _AL,td2
0000503A    99011C                         	CMPB  _AL,#01h
0000503D    D70E                           	JNE   ??_786_ELSE
;006971            {
;006972                    tmi[10] = tmi[10] + 16 * 256;
0000503F    A301B4001C                     	LD    _AX,(tmi+20)
00005044    6500101C                       	ADD   _AX,#1000h
00005048    C301B4001C                     	ST    _AX,(tmi+20)
;006973            }
                 ??_786_ELSE:
;006974            if (td2 == 2)
0000504D    B30111001C                     	LDB   _AL,td2
00005052    99021C                         	CMPB  _AL,#02h
00005055    D70E                           	JNE   ??_787_ELSE
;006975            {
;006976                    tmi[10] = tmi[10] + 32 * 256;
00005057    A301B4001C                     	LD    _AX,(tmi+20)
0000505C    6500201C                       	ADD   _AX,#2000h
00005060    C301B4001C                     	ST    _AX,(tmi+20)
;006977            }
                 ??_787_ELSE:
;006978            if (td2 == 3)
00005065    B30111001C                     	LDB   _AL,td2
0000506A    99031C                         	CMPB  _AL,#03h
0000506D    D70E                           	JNE   ??_788_ELSE
;006979            {
;006980                    tmi[10] = tmi[10] + 64 * 256;
0000506F    A301B4001C                     	LD    _AX,(tmi+20)
00005074    6500401C                       	ADD   _AX,#4000h
00005078    C301B4001C                     	ST    _AX,(tmi+20)
;006981            }
                 ??_788_ELSE:
;006984            if (td3 != 3)
0000507D    B30112001C                     	LDB   _AL,td3
00005082    99031C                         	CMPB  _AL,#03h
00005085    DF0E                           	JE    ??_789_ELSE
;006985            {
;006986                    tmi[10] = tmi[10] + td3;
00005087    111D                           	CLRB  _AH
00005089    6701B4001C                     	ADD   _AX,(tmi+20)
0000508E    C301B4001C                     	ST    _AX,(tmi+20)
;006987            }
00005093    200E                           	SJMP  ??_789_END
                 ??_789_ELSE:
;006989            {
;006990                    tmi[10] = tmi[10] + 4;
00005095    A301B4001C                     	LD    _AX,(tmi+20)
0000509A    6504001C                       	ADD   _AX,#0004h
0000509E    C301B4001C                     	ST    _AX,(tmi+20)
;006991            }
                  ??_789_END:
;006994            if (td4 == 1)
000050A3    B30113001C                     	LDB   _AL,td4
000050A8    99011C                         	CMPB  _AL,#01h
000050AB    D70E                           	JNE   ??_790_ELSE
;006995            {
;006996                    tmi[10] = tmi[10] + 16;
000050AD    A301B4001C                     	LD    _AX,(tmi+20)
000050B2    6510001C                       	ADD   _AX,#0010h
000050B6    C301B4001C                     	ST    _AX,(tmi+20)
;006997            }
                 ??_790_ELSE:
;006998            if (td4 == 2)
000050BB    B30113001C                     	LDB   _AL,td4
000050C0    99021C                         	CMPB  _AL,#02h
000050C3    D70E                           	JNE   ??_791_ELSE
;006999            {
;007000                    tmi[10] = tmi[10] + 32;
000050C5    A301B4001C                     	LD    _AX,(tmi+20)
000050CA    6520001C                       	ADD   _AX,#0020h
000050CE    C301B4001C                     	ST    _AX,(tmi+20)
;007001            }
                 ??_791_ELSE:
;007002            if (td4 == 3)
000050D3    B30113001C                     	LDB   _AL,td4
000050D8    99031C                         	CMPB  _AL,#03h
000050DB    D70E                           	JNE   ??_792_ELSE
;007003            {
;007004                    tmi[10] = tmi[10] + 64;
000050DD    A301B4001C                     	LD    _AX,(tmi+20)
000050E2    6540001C                       	ADD   _AX,#0040h
000050E6    C301B4001C                     	ST    _AX,(tmi+20)
;007005            }
                 ??_792_ELSE:
;007010            tmi[11] = 0;
000050EB    C301B60000                     	ST    00h,(tmi+22)
;007012            if (bl_td[6] == 255)
000050F0    B301F9001C                     	LDB   _AL,(bl_td+6)
000050F5    99FF1C                         	CMPB  _AL,#0FFh
000050F8    D70C                           	JNE   ??_793_ELSE
;007013            {
;007014                    tmi[11] = tmi[11] + 1;
000050FA    A301B6001C                     	LD    _AX,(tmi+22)
000050FF    071C                           	INC   _AX
00005101    C301B6001C                     	ST    _AX,(tmi+22)
;007015            }
                 ??_793_ELSE:
;007017            if (bl_td[7] == 255)
00005106    B301FA001C                     	LDB   _AL,(bl_td+7)
0000510B    99FF1C                         	CMPB  _AL,#0FFh
0000510E    D70E                           	JNE   ??_794_ELSE
;007018            {
;007019                    tmi[11] = tmi[11] + 2;
00005110    A301B6001C                     	LD    _AX,(tmi+22)
00005115    6502001C                       	ADD   _AX,#0002h
00005119    C301B6001C                     	ST    _AX,(tmi+22)
;007020            }
                 ??_794_ELSE:
;007022            if (bl_td[8] == 255)
0000511E    B301FB001C                     	LDB   _AL,(bl_td+8)
00005123    99FF1C                         	CMPB  _AL,#0FFh
00005126    D70E                           	JNE   ??_795_ELSE
;007023            {
;007024                    tmi[11] = tmi[11] + 4;
00005128    A301B6001C                     	LD    _AX,(tmi+22)
0000512D    6504001C                       	ADD   _AX,#0004h
00005131    C301B6001C                     	ST    _AX,(tmi+22)
;007025            }
                 ??_795_ELSE:
;007028            if (bl_td[9] == 255)
00005136    B301FC001C                     	LDB   _AL,(bl_td+9)
0000513B    99FF1C                         	CMPB  _AL,#0FFh
0000513E    D70E                           	JNE   ??_796_ELSE
;007029            {
;007030                    tmi[11] = tmi[11] + 16;
00005140    A301B6001C                     	LD    _AX,(tmi+22)
00005145    6510001C                       	ADD   _AX,#0010h
00005149    C301B6001C                     	ST    _AX,(tmi+22)
;007031            }
                 ??_796_ELSE:
;007033            if (bl_td[10] == 255)
0000514E    B301FD001C                     	LDB   _AL,(bl_td+10)
00005153    99FF1C                         	CMPB  _AL,#0FFh
00005156    D70E                           	JNE   ??_797_ELSE
;007034            {
;007035                    tmi[11] = tmi[11] + 32;
00005158    A301B6001C                     	LD    _AX,(tmi+22)
0000515D    6520001C                       	ADD   _AX,#0020h
00005161    C301B6001C                     	ST    _AX,(tmi+22)
;007036            }
                 ??_797_ELSE:
;007038            if (bl_td[11] == 255)
00005166    B301FE001C                     	LDB   _AL,(bl_td+11)
0000516B    99FF1C                         	CMPB  _AL,#0FFh
0000516E    D70E                           	JNE   ??_798_ELSE
;007039            {
;007040                    tmi[11] = tmi[11] + 64;
00005170    A301B6001C                     	LD    _AX,(tmi+22)
00005175    6540001C                       	ADD   _AX,#0040h
00005179    C301B6001C                     	ST    _AX,(tmi+22)
;007041            }
                 ??_798_ELSE:
;007044            if (bl_td[0] == 255)
0000517E    B301F3001C                     	LDB   _AL,bl_td
00005183    99FF1C                         	CMPB  _AL,#0FFh
00005186    D70E                           	JNE   ??_799_ELSE
;007045            {
;007046                    tmi[11] = tmi[11] + 1 * 256;
00005188    A301B6001C                     	LD    _AX,(tmi+22)
0000518D    6500011C                       	ADD   _AX,#0100h
00005191    C301B6001C                     	ST    _AX,(tmi+22)
;007047            }
                 ??_799_ELSE:
;007049            if (bl_td[1] == 255)
00005196    B301F4001C                     	LDB   _AL,(bl_td+1)
0000519B    99FF1C                         	CMPB  _AL,#0FFh
0000519E    D70E                           	JNE   ??_800_ELSE
;007050            {
;007051                    tmi[11] = tmi[11] + 2 * 256;
000051A0    A301B6001C                     	LD    _AX,(tmi+22)
000051A5    6500021C                       	ADD   _AX,#0200h
000051A9    C301B6001C                     	ST    _AX,(tmi+22)
;007052            }
                 ??_800_ELSE:
;007054            if (bl_td[2] == 255)
000051AE    B301F5001C                     	LDB   _AL,(bl_td+2)
000051B3    99FF1C                         	CMPB  _AL,#0FFh
000051B6    D70E                           	JNE   ??_801_ELSE
;007055            {
;007056                    tmi[11] = tmi[11] + 4 * 256;
000051B8    A301B6001C                     	LD    _AX,(tmi+22)
000051BD    6500041C                       	ADD   _AX,#0400h
000051C1    C301B6001C                     	ST    _AX,(tmi+22)
;007057            }
                 ??_801_ELSE:
;007060            if (bl_td[3] == 255)
000051C6    B301F6001C                     	LDB   _AL,(bl_td+3)
000051CB    99FF1C                         	CMPB  _AL,#0FFh
000051CE    D70E                           	JNE   ??_802_ELSE
;007061            {
;007062                    tmi[11] = tmi[11] + 16 * 256;
000051D0    A301B6001C                     	LD    _AX,(tmi+22)
000051D5    6500101C                       	ADD   _AX,#1000h
000051D9    C301B6001C                     	ST    _AX,(tmi+22)
;007063            }
                 ??_802_ELSE:
;007065            if (bl_td[4] == 255)
000051DE    B301F7001C                     	LDB   _AL,(bl_td+4)
000051E3    99FF1C                         	CMPB  _AL,#0FFh
000051E6    D70E                           	JNE   ??_803_ELSE
;007066            {
;007067                    tmi[11] = tmi[11] + 32 * 256;
000051E8    A301B6001C                     	LD    _AX,(tmi+22)
000051ED    6500201C                       	ADD   _AX,#2000h
000051F1    C301B6001C                     	ST    _AX,(tmi+22)
;007068            }
                 ??_803_ELSE:
;007070            if (bl_td[5] == 255)
000051F6    B301F8001C                     	LDB   _AL,(bl_td+5)
000051FB    99FF1C                         	CMPB  _AL,#0FFh
000051FE    D70E                           	JNE   ??_804_ELSE
;007071            {
;007072                    tmi[11] = tmi[11] + 64 * 256;
00005200    A301B6001C                     	LD    _AX,(tmi+22)
00005205    6500401C                       	ADD   _AX,#4000h
00005209    C301B6001C                     	ST    _AX,(tmi+22)
;007073            }
                 ??_804_ELSE:
;007077            if (num_com == 255)
0000520E    B3010E001C                     	LDB   _AL,num_com
00005213    99FF1C                         	CMPB  _AL,#0FFh
00005216    D70F                           	JNE   ??_805_ELSE
;007078            {
;007079                    tmi[12] = 256 * (inf_bvm + 0) + 0;
00005218    B30156011C                     	LDB   _AL,inf_bvm
0000521D    09081C                         	SHL   _AX,#08h
00005220    C301B8001C                     	ST    _AX,(tmi+24)
;007080            }
00005225    203F                           	SJMP  ??_805_END
                 ??_805_ELSE:
;007082            {
;007083                    if (num_com < 71)
00005227    99471C                         	CMPB  _AL,#47h
0000522A    DB08                           	JC    ??_806_ELSE
;007084                    {
;007085                            prog_com_tm = num_com + 168;
0000522C    75A81C                         	ADDB  _AL,#0A8h
0000522F    C70122021C                     	STB   _AL,prog_com_tm
;007086                    }
                 ??_806_ELSE:
;007088                    if (prog_com_tm == 0)
00005234    B30122021C                     	LDB   _AL,prog_com_tm
00005239    98001C                         	CMPB  _AL,0
0000523C    D70F                           	JNE   ??_807_ELSE
;007089                    {
;007090                            tmi[12] = 256 * (inf_bvm + 0) + 0;
0000523E    B30156011C                     	LDB   _AL,inf_bvm
00005243    09081C                         	SHL   _AX,#08h
00005246    C301B8001C                     	ST    _AX,(tmi+24)
;007091                    }
0000524B    2019                           	SJMP  ??_807_END
                 ??_807_ELSE:
;007093                    {
;007094                            tmi[12] = 256 * (inf_bvm + 3) + prog_com_tm;
0000524D    B30156011C                     	LDB   _AL,inf_bvm
00005252    09081C                         	SHL   _AX,#08h
00005255    AF0122021E                     	LDBZE _BX,prog_com_tm
0000525A    641E1C                         	ADD   _AX,_BX
0000525D    6500031C                       	ADD   _AX,#0300h
00005261    C301B8001C                     	ST    _AX,(tmi+24)
;007095                    }
                  ??_807_END:
;007096            }
                  ??_805_END:
;007102            tmi[13] = code_av;
00005266    AF0125011C                     	LDBZE _AX,code_av
0000526B    C301BA001C                     	ST    _AX,(tmi+26)
;007107            for (io = 0; io <=11; io++)
00005270    0124                           	CLR   io?main
00005272    2047                           	SJMP  ??_808_CHECK
                 ??_808_LOOP:
;007108            {
;007109                    tmi[14 + io] = dig_td[1][io];
00005274    A0241E                         	LD    _BX,io?main
00005277    09011E                         	SHL   _BX,#01h
0000527A    AF253B011C                     	LDBZE _AX,(dig_td+13)[io?main]
0000527F    C31FBC001C                     	ST    _AX,(tmi+28)[_BX]
;007113                    if (t_td[io] >=0)
00005284    A02420                         	LD    _CX,io?main
00005287    090220                         	SHL   _CX,#02h
0000528A    A32110001C                     	LD    _AX,t_td[_CX]
0000528F    A32112001E                     	LD    _BX,(t_td+2)[_CX]
00005294    AD0020                         	LDBZE _CX,#00h
00005297    AD0022                         	LDBZE _DX,#00h
0000529A    EF63AD                         	LCALL ??FPCMP
0000529D    DE1A                           	JLT   ??_809_ELSE
;007114                    {
;007115                            tmi[14 + io] = tmi[14 + io] + 256;
0000529F    A0241E                         	LD    _BX,io?main
000052A2    09011E                         	SHL   _BX,#01h
000052A5    A0241C                         	LD    _AX,io?main
000052A8    09011C                         	SHL   _AX,#01h
000052AB    A31DBC001C                     	LD    _AX,(tmi+28)[_AX]
000052B0    6500011C                       	ADD   _AX,#0100h
000052B4    C31FBC001C                     	ST    _AX,(tmi+28)[_BX]
;007116                    }
                 ??_809_ELSE:
;007117            }
000052B9    0724                           	INC   io?main
                ??_808_CHECK:
000052BB    890C0024                       	CMP   io?main,#000Ch
000052BF    DEB3                           	JLT   ??_808_LOOP
;007121            ks_tmi = 0;
000052C1    C301040000                     	ST    00h,ks_tmi
000052C6    C301060000                     	ST    00h,(ks_tmi+2)
;007123            for (i = 0; i <=25; i++)
000052CB    0124                           	CLR   i?main
000052CD    2061                           	SJMP  ??_810_CHECK
                 ??_810_LOOP:
;007124            {
;007127                    ks_tmi = ks_tmi + tmi[i];
000052CF    A0241C                         	LD    _AX,i?main
000052D2    09011C                         	SHL   _AX,#01h
000052D5    A31DA0001C                     	LD    _AX,tmi[_AX]
000052DA    011E                           	CLR   _BX
000052DC    670104001C                     	ADD   _AX,ks_tmi
000052E1    A70106001E                     	ADDC  _BX,(ks_tmi+2)
000052E6    C30104001C                     	ST    _AX,ks_tmi
000052EB    C30106001E                     	ST    _BX,(ks_tmi+2)
;007129                    if (ks_tmi > 0xFFFF)
000052F0    A301040020                     	LD    _CX,ks_tmi
000052F5    A301060022                     	LD    _DX,(ks_tmi+2)
000052FA    011C                           	CLR   _AX
000052FC    AD011E                         	LDBZE _BX,#01h
000052FF    C51C20                         	CMPL  _DCX,_BAX
00005302    D32A                           	JNC   ??_811_ELSE
;007130                    {
;007131                            ks_tmi = (ks_tmi & 0xFFFF);
00005304    A30104001C                     	LD    _AX,ks_tmi
00005309    A30106001E                     	LD    _BX,(ks_tmi+2)
0000530E    61FFFF1C                       	AND   _AX,#0FFFFh
00005312    60001E                         	AND   _BX,0
00005315    C30104001C                     	ST    _AX,ks_tmi
0000531A    C30106001E                     	ST    _BX,(ks_tmi+2)
;007133                            ks_tmi = ks_tmi + 1;
0000531F    071C                           	INC   _AX
00005321    A4001E                         	ADDC  _BX,0
00005324    C30104001C                     	ST    _AX,ks_tmi
00005329    C30106001E                     	ST    _BX,(ks_tmi+2)
;007134                    }
                 ??_811_ELSE:
;007135            }
0000532E    0724                           	INC   i?main
                ??_810_CHECK:
00005330    891A0024                       	CMP   i?main,#001Ah
00005334    DE99                           	JLT   ??_810_LOOP
;007138            for (i = 0; i < 31; i++)
00005336    0124                           	CLR   i?main
00005338    2018                           	SJMP  ??_812_CHECK
                 ??_812_LOOP:
;007139            {
;007140                  *(volatile unsigned short*)(0x1042 + 0x40 + i*2) = tmi[i];
0000533A    A0241E                         	LD    _BX,i?main
0000533D    09011E                         	SHL   _BX,#01h
00005340    A0241C                         	LD    _AX,i?main
00005343    09011C                         	SHL   _AX,#01h
00005346    A31DA0001C                     	LD    _AX,tmi[_AX]
0000534B    C31F82101C                     	ST    _AX,1082h[_BX]
;007141            }
00005350    0724                           	INC   i?main
                ??_812_CHECK:
00005352    891F0024                       	CMP   i?main,#001Fh
00005356    DEE2                           	JLT   ??_812_LOOP
;007143            *(volatile unsigned short*)(0x1040 + 0x40) = ks_tmi;
00005358    A30104001C                     	LD    _AX,ks_tmi
0000535D    C30180101C                     	ST    _AX,1080h
;007155            goto Main_cycle;
00005362    E764BC                         	LJMP  ??_Main_cycle_main
           ??_Send12_td_main:
;007162            delay_uart = 0;
00005365    C301940000                     	ST    00h,delay_uart
;007164            delay_7000();
0000536A    EF93AC                         	LCALL delay_7000
;007166            i = 0;
0000536D    0124                           	CLR   i?main
;007168            while (i <= 11)
0000536F    2040                           	SJMP  ??_813_CONTINUE
                   ??_813_DO:
;007169            {
;007170                    delay_uart = 0;
00005371    C301940000                     	ST    00h,delay_uart
      ??_Send_num_td_45_main:
;007174                    t = cod_td[i];
00005376    B32518011C                     	LDB   _AL,cod_td[i?main]
0000537B    C70129021C                     	STB   _AL,t
;007176                    status_uart = SP_STAT0;
00005380    C701280200                     	STB   SP_STAT0,status_uart
;007178                    if (( status_uart & 0x8) != 0)
00005385    B30128021C                     	LDB   _AL,status_uart
0000538A    71081C                         	ANDB  _AL,#08h
0000538D    98001C                         	CMPB  _AL,0
00005390    DF0A                           	JE    ??_814_ELSE
;007179                    {
;007180                            SBUF_TX0 = t;
00005392    B301290200                     	LDB   SBUF_TX0,t
;007181                            __NOP();
00005397    FD                             	NOP   
;007183                            i = i + 1;
00005398    0724                           	INC   i?main
;007184                    }
0000539A    2015                           	SJMP  ??_814_END
                 ??_814_ELSE:
;007186                    {
;007187                            delay_uart = delay_uart + 1;
0000539C    A30194001C                     	LD    _AX,delay_uart
000053A1    071C                           	INC   _AX
000053A3    C30194001C                     	ST    _AX,delay_uart
;007188                            __NOP();
000053A8    FD                             	NOP   
;007189                            __NOP();
000053A9    FD                             	NOP   
;007190                            __NOP();
000053AA    FD                             	NOP   
;007192                            if (delay_uart > 32000)
000053AB    89017D1C                       	CMP   _AX,#7D01h
;007193                            {
;007194                                    goto Fin_send_45;
000053AF    DB06                           	JC    ??_Fin_send_45_main
;007195                            }
;007196                    }
                  ??_814_END:
;007197            }
             ??_813_CONTINUE:
000053B1    890C0024                       	CMP   i?main,#000Ch
000053B5    DEBA                           	JLT   ??_813_DO
         ??_Fin_send_45_main:
;007201            goto Main_cycle;
000053B7    E70FBC                         	LJMP  ??_Main_cycle_main
;007203    }
000053BA    65040018                       	ADD   _SP,#0004h
000053BE    CC2A                           	POP   _HX
000053C0    CC28                           	POP   _GX
000053C2    CC26                           	POP   _FX
000053C4    CC24                           	POP   _EX
000053C6    F0                             	RET   
.ENDF

.\BKATR\main.c: 21640 byte(s), 10103 line(s), 0 error(s), 5 warning(s)

